
XBOT510_CtrlBox.elf:     file format elf32-avr

Sections:
Idx Name          Size      VMA       LMA       File off  Algn
  0 .text         00002c7e  00000000  00000000  00000094  2**1
                  CONTENTS, ALLOC, LOAD, READONLY, CODE
  1 .data         00000058  00802000  00002c7e  00002d12  2**0
                  CONTENTS, ALLOC, LOAD, DATA
  2 .bss          00000270  00802058  00802058  00002d6a  2**0
                  ALLOC
  3 .stab         00008d0c  00000000  00000000  00002d6c  2**2
                  CONTENTS, READONLY, DEBUGGING
  4 .stabstr      0000f2c1  00000000  00000000  0000ba78  2**0
                  CONTENTS, READONLY, DEBUGGING

Disassembly of section .text:

00000000 <__vectors>:
       0:	0c 94 f4 00 	jmp	0x1e8	; 0x1e8 <__ctors_end>
       4:	0c 94 13 01 	jmp	0x226	; 0x226 <__bad_interrupt>
       8:	0c 94 13 01 	jmp	0x226	; 0x226 <__bad_interrupt>
       c:	0c 94 13 01 	jmp	0x226	; 0x226 <__bad_interrupt>
      10:	0c 94 13 01 	jmp	0x226	; 0x226 <__bad_interrupt>
      14:	0c 94 13 01 	jmp	0x226	; 0x226 <__bad_interrupt>
      18:	0c 94 13 01 	jmp	0x226	; 0x226 <__bad_interrupt>
      1c:	0c 94 13 01 	jmp	0x226	; 0x226 <__bad_interrupt>
      20:	0c 94 13 01 	jmp	0x226	; 0x226 <__bad_interrupt>
      24:	0c 94 13 01 	jmp	0x226	; 0x226 <__bad_interrupt>
      28:	0c 94 13 01 	jmp	0x226	; 0x226 <__bad_interrupt>
      2c:	0c 94 13 01 	jmp	0x226	; 0x226 <__bad_interrupt>
      30:	0c 94 13 01 	jmp	0x226	; 0x226 <__bad_interrupt>
      34:	0c 94 13 01 	jmp	0x226	; 0x226 <__bad_interrupt>
      38:	0c 94 13 01 	jmp	0x226	; 0x226 <__bad_interrupt>
      3c:	0c 94 13 01 	jmp	0x226	; 0x226 <__bad_interrupt>
      40:	0c 94 13 01 	jmp	0x226	; 0x226 <__bad_interrupt>
      44:	0c 94 13 01 	jmp	0x226	; 0x226 <__bad_interrupt>
      48:	0c 94 13 01 	jmp	0x226	; 0x226 <__bad_interrupt>
      4c:	0c 94 13 01 	jmp	0x226	; 0x226 <__bad_interrupt>
      50:	0c 94 13 01 	jmp	0x226	; 0x226 <__bad_interrupt>
      54:	0c 94 13 01 	jmp	0x226	; 0x226 <__bad_interrupt>
      58:	0c 94 13 01 	jmp	0x226	; 0x226 <__bad_interrupt>
      5c:	0c 94 13 01 	jmp	0x226	; 0x226 <__bad_interrupt>
      60:	0c 94 13 01 	jmp	0x226	; 0x226 <__bad_interrupt>
      64:	0c 94 7d 13 	jmp	0x26fa	; 0x26fa <__vector_25>
      68:	0c 94 57 12 	jmp	0x24ae	; 0x24ae <__vector_26>
      6c:	0c 94 13 01 	jmp	0x226	; 0x226 <__bad_interrupt>
      70:	0c 94 53 13 	jmp	0x26a6	; 0x26a6 <__vector_28>
      74:	0c 94 2d 12 	jmp	0x245a	; 0x245a <__vector_29>
      78:	0c 94 13 01 	jmp	0x226	; 0x226 <__bad_interrupt>
      7c:	0c 94 13 01 	jmp	0x226	; 0x226 <__bad_interrupt>
      80:	0c 94 13 01 	jmp	0x226	; 0x226 <__bad_interrupt>
      84:	0c 94 13 01 	jmp	0x226	; 0x226 <__bad_interrupt>
      88:	0c 94 13 01 	jmp	0x226	; 0x226 <__bad_interrupt>
      8c:	0c 94 13 01 	jmp	0x226	; 0x226 <__bad_interrupt>
      90:	0c 94 13 01 	jmp	0x226	; 0x226 <__bad_interrupt>
      94:	0c 94 13 01 	jmp	0x226	; 0x226 <__bad_interrupt>
      98:	0c 94 13 01 	jmp	0x226	; 0x226 <__bad_interrupt>
      9c:	0c 94 13 01 	jmp	0x226	; 0x226 <__bad_interrupt>
      a0:	0c 94 13 01 	jmp	0x226	; 0x226 <__bad_interrupt>
      a4:	0c 94 13 01 	jmp	0x226	; 0x226 <__bad_interrupt>
      a8:	0c 94 da 0d 	jmp	0x1bb4	; 0x1bb4 <__vector_42>
      ac:	0c 94 13 01 	jmp	0x226	; 0x226 <__bad_interrupt>
      b0:	0c 94 13 01 	jmp	0x226	; 0x226 <__bad_interrupt>
      b4:	0c 94 13 01 	jmp	0x226	; 0x226 <__bad_interrupt>
      b8:	0c 94 13 01 	jmp	0x226	; 0x226 <__bad_interrupt>
      bc:	0c 94 13 01 	jmp	0x226	; 0x226 <__bad_interrupt>
      c0:	0c 94 13 01 	jmp	0x226	; 0x226 <__bad_interrupt>
      c4:	0c 94 13 01 	jmp	0x226	; 0x226 <__bad_interrupt>
      c8:	0c 94 13 01 	jmp	0x226	; 0x226 <__bad_interrupt>
      cc:	0c 94 13 01 	jmp	0x226	; 0x226 <__bad_interrupt>
      d0:	0c 94 13 01 	jmp	0x226	; 0x226 <__bad_interrupt>
      d4:	0c 94 13 01 	jmp	0x226	; 0x226 <__bad_interrupt>
      d8:	0c 94 13 01 	jmp	0x226	; 0x226 <__bad_interrupt>
      dc:	0c 94 13 01 	jmp	0x226	; 0x226 <__bad_interrupt>
      e0:	0c 94 13 01 	jmp	0x226	; 0x226 <__bad_interrupt>
      e4:	0c 94 13 01 	jmp	0x226	; 0x226 <__bad_interrupt>
      e8:	0c 94 d5 12 	jmp	0x25aa	; 0x25aa <__vector_58>
      ec:	0c 94 d9 11 	jmp	0x23b2	; 0x23b2 <__vector_59>
      f0:	0c 94 13 01 	jmp	0x226	; 0x226 <__bad_interrupt>
      f4:	0c 94 ab 12 	jmp	0x2556	; 0x2556 <__vector_61>
      f8:	0c 94 af 11 	jmp	0x235e	; 0x235e <__vector_62>
      fc:	0c 94 13 01 	jmp	0x226	; 0x226 <__bad_interrupt>
     100:	0c 94 13 01 	jmp	0x226	; 0x226 <__bad_interrupt>
     104:	0c 94 13 01 	jmp	0x226	; 0x226 <__bad_interrupt>
     108:	0c 94 13 01 	jmp	0x226	; 0x226 <__bad_interrupt>
     10c:	0c 94 13 01 	jmp	0x226	; 0x226 <__bad_interrupt>
     110:	0c 94 13 01 	jmp	0x226	; 0x226 <__bad_interrupt>
     114:	0c 94 13 01 	jmp	0x226	; 0x226 <__bad_interrupt>
     118:	0c 94 13 01 	jmp	0x226	; 0x226 <__bad_interrupt>
     11c:	0c 94 13 01 	jmp	0x226	; 0x226 <__bad_interrupt>
     120:	0c 94 13 01 	jmp	0x226	; 0x226 <__bad_interrupt>
     124:	0c 94 13 01 	jmp	0x226	; 0x226 <__bad_interrupt>
     128:	0c 94 30 0e 	jmp	0x1c60	; 0x1c60 <__vector_74>
     12c:	0c 94 13 01 	jmp	0x226	; 0x226 <__bad_interrupt>
     130:	0c 94 13 01 	jmp	0x226	; 0x226 <__bad_interrupt>
     134:	0c 94 2d 10 	jmp	0x205a	; 0x205a <__vector_77>
     138:	0c 94 13 01 	jmp	0x226	; 0x226 <__bad_interrupt>
     13c:	0c 94 13 01 	jmp	0x226	; 0x226 <__bad_interrupt>
     140:	0c 94 13 01 	jmp	0x226	; 0x226 <__bad_interrupt>
     144:	0c 94 13 01 	jmp	0x226	; 0x226 <__bad_interrupt>
     148:	0c 94 13 01 	jmp	0x226	; 0x226 <__bad_interrupt>
     14c:	0c 94 f8 0f 	jmp	0x1ff0	; 0x1ff0 <__vector_83>
     150:	0c 94 13 01 	jmp	0x226	; 0x226 <__bad_interrupt>
     154:	0c 94 13 01 	jmp	0x226	; 0x226 <__bad_interrupt>
     158:	0c 94 13 01 	jmp	0x226	; 0x226 <__bad_interrupt>
     15c:	0c 94 13 01 	jmp	0x226	; 0x226 <__bad_interrupt>
     160:	0c 94 29 13 	jmp	0x2652	; 0x2652 <__vector_88>
     164:	0c 94 6d 11 	jmp	0x22da	; 0x22da <__vector_89>
     168:	0c 94 97 11 	jmp	0x232e	; 0x232e <__vector_90>
     16c:	0c 94 ff 12 	jmp	0x25fe	; 0x25fe <__vector_91>
     170:	0c 94 03 12 	jmp	0x2406	; 0x2406 <__vector_92>
     174:	0c 94 13 01 	jmp	0x226	; 0x226 <__bad_interrupt>
     178:	0c 94 13 01 	jmp	0x226	; 0x226 <__bad_interrupt>
     17c:	0c 94 13 01 	jmp	0x226	; 0x226 <__bad_interrupt>
     180:	0c 94 13 01 	jmp	0x226	; 0x226 <__bad_interrupt>
     184:	0c 94 13 01 	jmp	0x226	; 0x226 <__bad_interrupt>
     188:	0c 94 13 01 	jmp	0x226	; 0x226 <__bad_interrupt>
     18c:	0c 94 13 01 	jmp	0x226	; 0x226 <__bad_interrupt>
     190:	0c 94 13 01 	jmp	0x226	; 0x226 <__bad_interrupt>
     194:	0c 94 13 01 	jmp	0x226	; 0x226 <__bad_interrupt>
     198:	0c 94 13 01 	jmp	0x226	; 0x226 <__bad_interrupt>
     19c:	0c 94 13 01 	jmp	0x226	; 0x226 <__bad_interrupt>
     1a0:	0c 94 13 01 	jmp	0x226	; 0x226 <__bad_interrupt>
     1a4:	0c 94 13 01 	jmp	0x226	; 0x226 <__bad_interrupt>
     1a8:	0c 94 13 01 	jmp	0x226	; 0x226 <__bad_interrupt>
     1ac:	0c 94 13 01 	jmp	0x226	; 0x226 <__bad_interrupt>
     1b0:	0c 94 13 01 	jmp	0x226	; 0x226 <__bad_interrupt>
     1b4:	0c 94 13 01 	jmp	0x226	; 0x226 <__bad_interrupt>
     1b8:	0c 94 13 01 	jmp	0x226	; 0x226 <__bad_interrupt>
     1bc:	0c 94 13 01 	jmp	0x226	; 0x226 <__bad_interrupt>
     1c0:	0c 94 13 01 	jmp	0x226	; 0x226 <__bad_interrupt>
     1c4:	0c 94 13 01 	jmp	0x226	; 0x226 <__bad_interrupt>
     1c8:	0c 94 13 01 	jmp	0x226	; 0x226 <__bad_interrupt>
     1cc:	0c 94 13 01 	jmp	0x226	; 0x226 <__bad_interrupt>
     1d0:	0c 94 13 01 	jmp	0x226	; 0x226 <__bad_interrupt>
     1d4:	0c 94 13 01 	jmp	0x226	; 0x226 <__bad_interrupt>
     1d8:	0c 94 13 01 	jmp	0x226	; 0x226 <__bad_interrupt>
     1dc:	0c 94 a7 13 	jmp	0x274e	; 0x274e <__vector_119>
     1e0:	0c 94 81 12 	jmp	0x2502	; 0x2502 <__vector_120>
     1e4:	0c 94 13 01 	jmp	0x226	; 0x226 <__bad_interrupt>

000001e8 <__ctors_end>:
     1e8:	11 24       	eor	r1, r1
     1ea:	1f be       	out	0x3f, r1	; 63
     1ec:	cf ef       	ldi	r28, 0xFF	; 255
     1ee:	df e2       	ldi	r29, 0x2F	; 47
     1f0:	de bf       	out	0x3e, r29	; 62
     1f2:	cd bf       	out	0x3d, r28	; 61

000001f4 <__do_copy_data>:
     1f4:	10 e2       	ldi	r17, 0x20	; 32
     1f6:	a0 e0       	ldi	r26, 0x00	; 0
     1f8:	b0 e2       	ldi	r27, 0x20	; 32
     1fa:	ee e7       	ldi	r30, 0x7E	; 126
     1fc:	fc e2       	ldi	r31, 0x2C	; 44
     1fe:	00 e0       	ldi	r16, 0x00	; 0
     200:	0b bf       	out	0x3b, r16	; 59
     202:	02 c0       	rjmp	.+4      	; 0x208 <__do_copy_data+0x14>
     204:	07 90       	elpm	r0, Z+
     206:	0d 92       	st	X+, r0
     208:	a8 35       	cpi	r26, 0x58	; 88
     20a:	b1 07       	cpc	r27, r17
     20c:	d9 f7       	brne	.-10     	; 0x204 <__do_copy_data+0x10>

0000020e <__do_clear_bss>:
     20e:	12 e2       	ldi	r17, 0x22	; 34
     210:	a8 e5       	ldi	r26, 0x58	; 88
     212:	b0 e2       	ldi	r27, 0x20	; 32
     214:	01 c0       	rjmp	.+2      	; 0x218 <.do_clear_bss_start>

00000216 <.do_clear_bss_loop>:
     216:	1d 92       	st	X+, r1

00000218 <.do_clear_bss_start>:
     218:	a8 3c       	cpi	r26, 0xC8	; 200
     21a:	b1 07       	cpc	r27, r17
     21c:	e1 f7       	brne	.-8      	; 0x216 <.do_clear_bss_loop>
     21e:	0e 94 ed 0f 	call	0x1fda	; 0x1fda <main>
     222:	0c 94 3d 16 	jmp	0x2c7a	; 0x2c7a <_exit>

00000226 <__bad_interrupt>:
     226:	0c 94 00 00 	jmp	0	; 0x0 <__vectors>

0000022a <SetAccSpeed>:
     22a:	ac 01       	movw	r20, r24
     22c:	fb 01       	movw	r30, r22
     22e:	00 97       	sbiw	r24, 0x00	; 0
     230:	b1 f4       	brne	.+44     	; 0x25e <SetAccSpeed+0x34>
     232:	80 81       	ld	r24, Z
     234:	91 81       	ldd	r25, Z+1	; 0x01
     236:	97 ff       	sbrs	r25, 7
     238:	07 c0       	rjmp	.+14     	; 0x248 <SetAccSpeed+0x1e>
     23a:	2f ef       	ldi	r18, 0xFF	; 255
     23c:	88 33       	cpi	r24, 0x38	; 56
     23e:	92 07       	cpc	r25, r18
     240:	5c f4       	brge	.+22     	; 0x258 <SetAccSpeed+0x2e>
     242:	88 53       	subi	r24, 0x38	; 56
     244:	9f 4f       	sbci	r25, 0xFF	; 255
     246:	05 c0       	rjmp	.+10     	; 0x252 <SetAccSpeed+0x28>
     248:	89 3c       	cpi	r24, 0xC9	; 201
     24a:	91 05       	cpc	r25, r1
     24c:	2c f0       	brlt	.+10     	; 0x258 <SetAccSpeed+0x2e>
     24e:	88 5c       	subi	r24, 0xC8	; 200
     250:	90 40       	sbci	r25, 0x00	; 0
     252:	80 83       	st	Z, r24
     254:	91 83       	std	Z+1, r25	; 0x01
     256:	08 95       	ret
     258:	10 82       	st	Z, r1
     25a:	11 82       	std	Z+1, r1	; 0x01
     25c:	08 95       	ret
     25e:	20 81       	ld	r18, Z
     260:	31 81       	ldd	r19, Z+1	; 0x01
     262:	18 16       	cp	r1, r24
     264:	19 06       	cpc	r1, r25
     266:	34 f4       	brge	.+12     	; 0x274 <SetAccSpeed+0x4a>
     268:	37 fd       	sbrc	r19, 7
     26a:	17 c0       	rjmp	.+46     	; 0x29a <SetAccSpeed+0x70>
     26c:	28 17       	cp	r18, r24
     26e:	39 07       	cpc	r19, r25
     270:	34 f4       	brge	.+12     	; 0x27e <SetAccSpeed+0x54>
     272:	0c c0       	rjmp	.+24     	; 0x28c <SetAccSpeed+0x62>
     274:	37 ff       	sbrs	r19, 7
     276:	11 c0       	rjmp	.+34     	; 0x29a <SetAccSpeed+0x70>
     278:	82 17       	cp	r24, r18
     27a:	93 07       	cpc	r25, r19
     27c:	3c f4       	brge	.+14     	; 0x28c <SetAccSpeed+0x62>
     27e:	c9 01       	movw	r24, r18
     280:	84 1b       	sub	r24, r20
     282:	95 0b       	sbc	r25, r21
     284:	89 3c       	cpi	r24, 0xC9	; 201
     286:	91 05       	cpc	r25, r1
     288:	94 f0       	brlt	.+36     	; 0x2ae <SetAccSpeed+0x84>
     28a:	1a c0       	rjmp	.+52     	; 0x2c0 <SetAccSpeed+0x96>
     28c:	ca 01       	movw	r24, r20
     28e:	82 1b       	sub	r24, r18
     290:	93 0b       	sbc	r25, r19
     292:	89 3c       	cpi	r24, 0xC9	; 201
     294:	91 05       	cpc	r25, r1
     296:	5c f0       	brlt	.+22     	; 0x2ae <SetAccSpeed+0x84>
     298:	10 c0       	rjmp	.+32     	; 0x2ba <SetAccSpeed+0x90>
     29a:	20 81       	ld	r18, Z
     29c:	31 81       	ldd	r19, Z+1	; 0x01
     29e:	ca 01       	movw	r24, r20
     2a0:	82 1b       	sub	r24, r18
     2a2:	93 0b       	sbc	r25, r19
     2a4:	89 53       	subi	r24, 0x39	; 57
     2a6:	9f 4f       	sbci	r25, 0xFF	; 255
     2a8:	8f 58       	subi	r24, 0x8F	; 143
     2aa:	91 40       	sbci	r25, 0x01	; 1
     2ac:	18 f4       	brcc	.+6      	; 0x2b4 <SetAccSpeed+0x8a>
     2ae:	40 83       	st	Z, r20
     2b0:	51 83       	std	Z+1, r21	; 0x01
     2b2:	08 95       	ret
     2b4:	24 17       	cp	r18, r20
     2b6:	35 07       	cpc	r19, r21
     2b8:	1c f4       	brge	.+6      	; 0x2c0 <SetAccSpeed+0x96>
     2ba:	28 53       	subi	r18, 0x38	; 56
     2bc:	3f 4f       	sbci	r19, 0xFF	; 255
     2be:	02 c0       	rjmp	.+4      	; 0x2c4 <SetAccSpeed+0x9a>
     2c0:	28 5c       	subi	r18, 0xC8	; 200
     2c2:	30 40       	sbci	r19, 0x00	; 0
     2c4:	20 83       	st	Z, r18
     2c6:	31 83       	std	Z+1, r19	; 0x01
     2c8:	08 95       	ret

000002ca <CbSendDataToLcd>:
{
	static uint32_t SysPower=0,SysPowerSum=0;

	static uint8_t TimeTick = SUM_TICK;

	if(TimeTick>SUM_TICK)
     2ca:	80 91 29 20 	lds	r24, 0x2029
     2ce:	20 91 6c 20 	lds	r18, 0x206C
     2d2:	30 91 6d 20 	lds	r19, 0x206D
     2d6:	40 91 6e 20 	lds	r20, 0x206E
     2da:	50 91 6f 20 	lds	r21, 0x206F
     2de:	8b 30       	cpi	r24, 0x0B	; 11
     2e0:	08 f4       	brcc	.+2      	; 0x2e4 <CbSendDataToLcd+0x1a>
     2e2:	65 c0       	rjmp	.+202    	; 0x3ae <CbSendDataToLcd+0xe4>
	{
		SysPower = SysPowerSum/(SUM_TICK+1);
     2e4:	ca 01       	movw	r24, r20
     2e6:	b9 01       	movw	r22, r18
     2e8:	2b e0       	ldi	r18, 0x0B	; 11
     2ea:	30 e0       	ldi	r19, 0x00	; 0
     2ec:	40 e0       	ldi	r20, 0x00	; 0
     2ee:	50 e0       	ldi	r21, 0x00	; 0
     2f0:	0e 94 00 16 	call	0x2c00	; 0x2c00 <__udivmodsi4>
     2f4:	20 93 70 20 	sts	0x2070, r18
     2f8:	30 93 71 20 	sts	0x2071, r19
     2fc:	40 93 72 20 	sts	0x2072, r20
     300:	50 93 73 20 	sts	0x2073, r21
		SysPowerSum = 0;
     304:	10 92 6c 20 	sts	0x206C, r1
     308:	10 92 6d 20 	sts	0x206D, r1
     30c:	10 92 6e 20 	sts	0x206E, r1
     310:	10 92 6f 20 	sts	0x206F, r1
		TimeTick = 0;
     314:	10 92 29 20 	sts	0x2029, r1

		CbCtrlData.CtrlBoxPowerVal = CbCtrlAdValToPowerVal(SysPower);
     318:	a9 01       	movw	r20, r18


inline static uint16_t CbCtrlAdValToPowerVal(uint16_t AdVal)
{
	uint16_t PowerVal;
	if(AdVal<POWER_AD_K1)
     31a:	25 e0       	ldi	r18, 0x05	; 5
     31c:	43 3e       	cpi	r20, 0xE3	; 227
     31e:	52 07       	cpc	r21, r18
     320:	18 f4       	brcc	.+6      	; 0x328 <CbSendDataToLcd+0x5e>
     322:	60 e0       	ldi	r22, 0x00	; 0
     324:	70 e0       	ldi	r23, 0x00	; 0
     326:	40 c0       	rjmp	.+128    	; 0x3a8 <CbSendDataToLcd+0xde>
	{
		PowerVal= 0;
	}
	else if(AdVal<POWER_AD_K2)
     328:	37 e0       	ldi	r19, 0x07	; 7
     32a:	40 35       	cpi	r20, 0x50	; 80
     32c:	53 07       	cpc	r21, r19
     32e:	98 f4       	brcc	.+38     	; 0x356 <CbSendDataToLcd+0x8c>
	{
		PowerVal= (AdVal-POWER_AD_K1)*POWER_Val_K21/POWER_AD_K21+POWER_Val_K1;
     330:	84 e1       	ldi	r24, 0x14	; 20
     332:	90 e0       	ldi	r25, 0x00	; 0
     334:	9c 01       	movw	r18, r24
     336:	42 9f       	mul	r20, r18
     338:	c0 01       	movw	r24, r0
     33a:	43 9f       	mul	r20, r19
     33c:	90 0d       	add	r25, r0
     33e:	52 9f       	mul	r21, r18
     340:	90 0d       	add	r25, r0
     342:	11 24       	eor	r1, r1
     344:	8c 5b       	subi	r24, 0xBC	; 188
     346:	95 47       	sbci	r25, 0x75	; 117
     348:	6d e6       	ldi	r22, 0x6D	; 109
     34a:	71 e0       	ldi	r23, 0x01	; 1
     34c:	0e 94 d9 15 	call	0x2bb2	; 0x2bb2 <__udivmodhi4>
     350:	60 5b       	subi	r22, 0xB0	; 176
     352:	7f 4f       	sbci	r23, 0xFF	; 255
     354:	29 c0       	rjmp	.+82     	; 0x3a8 <CbSendDataToLcd+0xde>
	}
	else if(AdVal<POWER_AD_K3)
     356:	38 e0       	ldi	r19, 0x08	; 8
     358:	45 3c       	cpi	r20, 0xC5	; 197
     35a:	53 07       	cpc	r21, r19
     35c:	98 f4       	brcc	.+38     	; 0x384 <CbSendDataToLcd+0xba>
	{
		PowerVal= (AdVal-POWER_AD_K2)*POWER_Val_K32/POWER_AD_K32+POWER_Val_K2;
     35e:	84 e1       	ldi	r24, 0x14	; 20
     360:	90 e0       	ldi	r25, 0x00	; 0
     362:	9c 01       	movw	r18, r24
     364:	42 9f       	mul	r20, r18
     366:	c0 01       	movw	r24, r0
     368:	43 9f       	mul	r20, r19
     36a:	90 0d       	add	r25, r0
     36c:	52 9f       	mul	r21, r18
     36e:	90 0d       	add	r25, r0
     370:	11 24       	eor	r1, r1
     372:	80 54       	subi	r24, 0x40	; 64
     374:	92 49       	sbci	r25, 0x92	; 146
     376:	65 e7       	ldi	r22, 0x75	; 117
     378:	71 e0       	ldi	r23, 0x01	; 1
     37a:	0e 94 d9 15 	call	0x2bb2	; 0x2bb2 <__udivmodhi4>
     37e:	6c 59       	subi	r22, 0x9C	; 156
     380:	7f 4f       	sbci	r23, 0xFF	; 255
     382:	12 c0       	rjmp	.+36     	; 0x3a8 <CbSendDataToLcd+0xde>
	}
	else
	{
		PowerVal= (AdVal-POWER_AD_K3)*POWER_Val_K43/POWER_AD_K43+POWER_Val_K3;
     384:	84 e1       	ldi	r24, 0x14	; 20
     386:	90 e0       	ldi	r25, 0x00	; 0
     388:	9c 01       	movw	r18, r24
     38a:	42 9f       	mul	r20, r18
     38c:	c0 01       	movw	r24, r0
     38e:	43 9f       	mul	r20, r19
     390:	90 0d       	add	r25, r0
     392:	52 9f       	mul	r21, r18
     394:	90 0d       	add	r25, r0
     396:	11 24       	eor	r1, r1
     398:	84 56       	subi	r24, 0x64	; 100
     39a:	9f 4a       	sbci	r25, 0xAF	; 175
     39c:	6d e6       	ldi	r22, 0x6D	; 109
     39e:	71 e0       	ldi	r23, 0x01	; 1
     3a0:	0e 94 d9 15 	call	0x2bb2	; 0x2bb2 <__udivmodhi4>
     3a4:	68 58       	subi	r22, 0x88	; 136
     3a6:	7f 4f       	sbci	r23, 0xFF	; 255
	{
		SysPower = SysPowerSum/(SUM_TICK+1);
		SysPowerSum = 0;
		TimeTick = 0;

		CbCtrlData.CtrlBoxPowerVal = CbCtrlAdValToPowerVal(SysPower);
     3a8:	60 93 ac 20 	sts	0x20AC, r22
     3ac:	17 c0       	rjmp	.+46     	; 0x3dc <CbSendDataToLcd+0x112>

	}
	else
	{
		TimeTick++;
     3ae:	8f 5f       	subi	r24, 0xFF	; 255
     3b0:	80 93 29 20 	sts	0x2029, r24
		SysPowerSum += adc_a_control.ad3;
     3b4:	80 91 3f 20 	lds	r24, 0x203F
     3b8:	90 91 40 20 	lds	r25, 0x2040
     3bc:	aa 27       	eor	r26, r26
     3be:	97 fd       	sbrc	r25, 7
     3c0:	a0 95       	com	r26
     3c2:	ba 2f       	mov	r27, r26
     3c4:	28 0f       	add	r18, r24
     3c6:	39 1f       	adc	r19, r25
     3c8:	4a 1f       	adc	r20, r26
     3ca:	5b 1f       	adc	r21, r27
     3cc:	20 93 6c 20 	sts	0x206C, r18
     3d0:	30 93 6d 20 	sts	0x206D, r19
     3d4:	40 93 6e 20 	sts	0x206E, r20
     3d8:	50 93 6f 20 	sts	0x206F, r21

	}



	CbDisCtrl.pSendDisCtrl(&USART_data_C1,&CbCtrlData);
     3dc:	e0 91 2a 20 	lds	r30, 0x202A
     3e0:	f0 91 2b 20 	lds	r31, 0x202B
     3e4:	8e e1       	ldi	r24, 0x1E	; 30
     3e6:	91 e2       	ldi	r25, 0x21	; 33
     3e8:	64 e7       	ldi	r22, 0x74	; 116
     3ea:	70 e2       	ldi	r23, 0x20	; 32
     3ec:	09 95       	icall

//	ADC3	Voltage			系统工作电压



}
     3ee:	08 95       	ret

000003f0 <AdjustAdc>:
void AdjustAdc(void)
{
	uint32_t TempLong;

	TempLong = adc_a_control.ad0;
	TempLong = (TempLong*ADC_M)/ADC_C;
     3f0:	60 91 39 20 	lds	r22, 0x2039
     3f4:	70 91 3a 20 	lds	r23, 0x203A
     3f8:	88 27       	eor	r24, r24
     3fa:	77 fd       	sbrc	r23, 7
     3fc:	80 95       	com	r24
     3fe:	98 2f       	mov	r25, r24
     400:	24 e4       	ldi	r18, 0x44	; 68
     402:	38 e4       	ldi	r19, 0x48	; 72
     404:	40 e0       	ldi	r20, 0x00	; 0
     406:	50 e0       	ldi	r21, 0x00	; 0
     408:	0e 94 ba 15 	call	0x2b74	; 0x2b74 <__mulsi3>
	adc_a_control.ad0 = TempLong;
     40c:	20 e1       	ldi	r18, 0x10	; 16
     40e:	37 e2       	ldi	r19, 0x27	; 39
     410:	40 e0       	ldi	r20, 0x00	; 0
     412:	50 e0       	ldi	r21, 0x00	; 0
     414:	0e 94 00 16 	call	0x2c00	; 0x2c00 <__udivmodsi4>
     418:	20 93 39 20 	sts	0x2039, r18
     41c:	30 93 3a 20 	sts	0x203A, r19

	TempLong = adc_a_control.ad1;
	TempLong = (TempLong*ADC_M)/ADC_C;
     420:	60 91 3b 20 	lds	r22, 0x203B
     424:	70 91 3c 20 	lds	r23, 0x203C
     428:	88 27       	eor	r24, r24
     42a:	77 fd       	sbrc	r23, 7
     42c:	80 95       	com	r24
     42e:	98 2f       	mov	r25, r24
     430:	24 e4       	ldi	r18, 0x44	; 68
     432:	38 e4       	ldi	r19, 0x48	; 72
     434:	40 e0       	ldi	r20, 0x00	; 0
     436:	50 e0       	ldi	r21, 0x00	; 0
     438:	0e 94 ba 15 	call	0x2b74	; 0x2b74 <__mulsi3>
	adc_a_control.ad1 = TempLong;
     43c:	20 e1       	ldi	r18, 0x10	; 16
     43e:	37 e2       	ldi	r19, 0x27	; 39
     440:	40 e0       	ldi	r20, 0x00	; 0
     442:	50 e0       	ldi	r21, 0x00	; 0
     444:	0e 94 00 16 	call	0x2c00	; 0x2c00 <__udivmodsi4>
     448:	20 93 3b 20 	sts	0x203B, r18
     44c:	30 93 3c 20 	sts	0x203C, r19

	TempLong = adc_a_control.ad2;
	TempLong = (TempLong*ADC_M)/ADC_C;
     450:	60 91 3d 20 	lds	r22, 0x203D
     454:	70 91 3e 20 	lds	r23, 0x203E
     458:	88 27       	eor	r24, r24
     45a:	77 fd       	sbrc	r23, 7
     45c:	80 95       	com	r24
     45e:	98 2f       	mov	r25, r24
     460:	24 e4       	ldi	r18, 0x44	; 68
     462:	38 e4       	ldi	r19, 0x48	; 72
     464:	40 e0       	ldi	r20, 0x00	; 0
     466:	50 e0       	ldi	r21, 0x00	; 0
     468:	0e 94 ba 15 	call	0x2b74	; 0x2b74 <__mulsi3>
	adc_a_control.ad2 = TempLong;
     46c:	20 e1       	ldi	r18, 0x10	; 16
     46e:	37 e2       	ldi	r19, 0x27	; 39
     470:	40 e0       	ldi	r20, 0x00	; 0
     472:	50 e0       	ldi	r21, 0x00	; 0
     474:	0e 94 00 16 	call	0x2c00	; 0x2c00 <__udivmodsi4>
     478:	20 93 3d 20 	sts	0x203D, r18
     47c:	30 93 3e 20 	sts	0x203E, r19

	TempLong = adc_a_control.ad3;
	TempLong = (TempLong*ADC_M)/ADC_C;
     480:	60 91 3f 20 	lds	r22, 0x203F
     484:	70 91 40 20 	lds	r23, 0x2040
     488:	88 27       	eor	r24, r24
     48a:	77 fd       	sbrc	r23, 7
     48c:	80 95       	com	r24
     48e:	98 2f       	mov	r25, r24
     490:	24 e4       	ldi	r18, 0x44	; 68
     492:	38 e4       	ldi	r19, 0x48	; 72
     494:	40 e0       	ldi	r20, 0x00	; 0
     496:	50 e0       	ldi	r21, 0x00	; 0
     498:	0e 94 ba 15 	call	0x2b74	; 0x2b74 <__mulsi3>
	adc_a_control.ad3 = TempLong;
     49c:	20 e1       	ldi	r18, 0x10	; 16
     49e:	37 e2       	ldi	r19, 0x27	; 39
     4a0:	40 e0       	ldi	r20, 0x00	; 0
     4a2:	50 e0       	ldi	r21, 0x00	; 0
     4a4:	0e 94 00 16 	call	0x2c00	; 0x2c00 <__udivmodsi4>
     4a8:	20 93 3f 20 	sts	0x203F, r18
     4ac:	30 93 40 20 	sts	0x2040, r19

	TempLong = adc_a_control.ad4;
	TempLong = (TempLong*ADC_M)/ADC_C;
     4b0:	60 91 41 20 	lds	r22, 0x2041
     4b4:	70 91 42 20 	lds	r23, 0x2042
     4b8:	88 27       	eor	r24, r24
     4ba:	77 fd       	sbrc	r23, 7
     4bc:	80 95       	com	r24
     4be:	98 2f       	mov	r25, r24
     4c0:	24 e4       	ldi	r18, 0x44	; 68
     4c2:	38 e4       	ldi	r19, 0x48	; 72
     4c4:	40 e0       	ldi	r20, 0x00	; 0
     4c6:	50 e0       	ldi	r21, 0x00	; 0
     4c8:	0e 94 ba 15 	call	0x2b74	; 0x2b74 <__mulsi3>
	adc_a_control.ad4 = TempLong;
     4cc:	20 e1       	ldi	r18, 0x10	; 16
     4ce:	37 e2       	ldi	r19, 0x27	; 39
     4d0:	40 e0       	ldi	r20, 0x00	; 0
     4d2:	50 e0       	ldi	r21, 0x00	; 0
     4d4:	0e 94 00 16 	call	0x2c00	; 0x2c00 <__udivmodsi4>
     4d8:	20 93 41 20 	sts	0x2041, r18
     4dc:	30 93 42 20 	sts	0x2042, r19

	TempLong = adc_a_control.ad5;
	TempLong = (TempLong*ADC_M)/ADC_C;
     4e0:	60 91 43 20 	lds	r22, 0x2043
     4e4:	70 91 44 20 	lds	r23, 0x2044
     4e8:	88 27       	eor	r24, r24
     4ea:	77 fd       	sbrc	r23, 7
     4ec:	80 95       	com	r24
     4ee:	98 2f       	mov	r25, r24
     4f0:	24 e4       	ldi	r18, 0x44	; 68
     4f2:	38 e4       	ldi	r19, 0x48	; 72
     4f4:	40 e0       	ldi	r20, 0x00	; 0
     4f6:	50 e0       	ldi	r21, 0x00	; 0
     4f8:	0e 94 ba 15 	call	0x2b74	; 0x2b74 <__mulsi3>
	adc_a_control.ad5 = TempLong;
     4fc:	20 e1       	ldi	r18, 0x10	; 16
     4fe:	37 e2       	ldi	r19, 0x27	; 39
     500:	40 e0       	ldi	r20, 0x00	; 0
     502:	50 e0       	ldi	r21, 0x00	; 0
     504:	0e 94 00 16 	call	0x2c00	; 0x2c00 <__udivmodsi4>
     508:	20 93 43 20 	sts	0x2043, r18
     50c:	30 93 44 20 	sts	0x2044, r19

	TempLong = adc_a_control.ad6;
	TempLong = (TempLong*ADC_M)/ADC_C;
     510:	60 91 45 20 	lds	r22, 0x2045
     514:	70 91 46 20 	lds	r23, 0x2046
     518:	88 27       	eor	r24, r24
     51a:	77 fd       	sbrc	r23, 7
     51c:	80 95       	com	r24
     51e:	98 2f       	mov	r25, r24
     520:	24 e4       	ldi	r18, 0x44	; 68
     522:	38 e4       	ldi	r19, 0x48	; 72
     524:	40 e0       	ldi	r20, 0x00	; 0
     526:	50 e0       	ldi	r21, 0x00	; 0
     528:	0e 94 ba 15 	call	0x2b74	; 0x2b74 <__mulsi3>
	adc_a_control.ad6 = TempLong;
     52c:	20 e1       	ldi	r18, 0x10	; 16
     52e:	37 e2       	ldi	r19, 0x27	; 39
     530:	40 e0       	ldi	r20, 0x00	; 0
     532:	50 e0       	ldi	r21, 0x00	; 0
     534:	0e 94 00 16 	call	0x2c00	; 0x2c00 <__udivmodsi4>
     538:	20 93 45 20 	sts	0x2045, r18
     53c:	30 93 46 20 	sts	0x2046, r19

	TempLong = adc_a_control.ad7;
	TempLong = (TempLong*ADC_M)/ADC_C;
     540:	60 91 47 20 	lds	r22, 0x2047
     544:	70 91 48 20 	lds	r23, 0x2048
     548:	88 27       	eor	r24, r24
     54a:	77 fd       	sbrc	r23, 7
     54c:	80 95       	com	r24
     54e:	98 2f       	mov	r25, r24
     550:	24 e4       	ldi	r18, 0x44	; 68
     552:	38 e4       	ldi	r19, 0x48	; 72
     554:	40 e0       	ldi	r20, 0x00	; 0
     556:	50 e0       	ldi	r21, 0x00	; 0
     558:	0e 94 ba 15 	call	0x2b74	; 0x2b74 <__mulsi3>
	adc_a_control.ad7 = TempLong;
     55c:	20 e1       	ldi	r18, 0x10	; 16
     55e:	37 e2       	ldi	r19, 0x27	; 39
     560:	40 e0       	ldi	r20, 0x00	; 0
     562:	50 e0       	ldi	r21, 0x00	; 0
     564:	0e 94 00 16 	call	0x2c00	; 0x2c00 <__udivmodsi4>
     568:	20 93 47 20 	sts	0x2047, r18
     56c:	30 93 48 20 	sts	0x2048, r19


	TempLong = adc_a_control.adb0;
	TempLong = (TempLong*ADC_M)/ADC_C;
     570:	60 91 49 20 	lds	r22, 0x2049
     574:	70 91 4a 20 	lds	r23, 0x204A
     578:	88 27       	eor	r24, r24
     57a:	77 fd       	sbrc	r23, 7
     57c:	80 95       	com	r24
     57e:	98 2f       	mov	r25, r24
     580:	24 e4       	ldi	r18, 0x44	; 68
     582:	38 e4       	ldi	r19, 0x48	; 72
     584:	40 e0       	ldi	r20, 0x00	; 0
     586:	50 e0       	ldi	r21, 0x00	; 0
     588:	0e 94 ba 15 	call	0x2b74	; 0x2b74 <__mulsi3>
	adc_a_control.adb0 = TempLong;
     58c:	20 e1       	ldi	r18, 0x10	; 16
     58e:	37 e2       	ldi	r19, 0x27	; 39
     590:	40 e0       	ldi	r20, 0x00	; 0
     592:	50 e0       	ldi	r21, 0x00	; 0
     594:	0e 94 00 16 	call	0x2c00	; 0x2c00 <__udivmodsi4>
     598:	20 93 49 20 	sts	0x2049, r18
     59c:	30 93 4a 20 	sts	0x204A, r19

	TempLong = adc_a_control.adb1;
	TempLong = (TempLong*ADC_M)/ADC_C;
     5a0:	60 91 4b 20 	lds	r22, 0x204B
     5a4:	70 91 4c 20 	lds	r23, 0x204C
     5a8:	88 27       	eor	r24, r24
     5aa:	77 fd       	sbrc	r23, 7
     5ac:	80 95       	com	r24
     5ae:	98 2f       	mov	r25, r24
     5b0:	24 e4       	ldi	r18, 0x44	; 68
     5b2:	38 e4       	ldi	r19, 0x48	; 72
     5b4:	40 e0       	ldi	r20, 0x00	; 0
     5b6:	50 e0       	ldi	r21, 0x00	; 0
     5b8:	0e 94 ba 15 	call	0x2b74	; 0x2b74 <__mulsi3>
	adc_a_control.adb1 = TempLong;
     5bc:	20 e1       	ldi	r18, 0x10	; 16
     5be:	37 e2       	ldi	r19, 0x27	; 39
     5c0:	40 e0       	ldi	r20, 0x00	; 0
     5c2:	50 e0       	ldi	r21, 0x00	; 0
     5c4:	0e 94 00 16 	call	0x2c00	; 0x2c00 <__udivmodsi4>
     5c8:	20 93 4b 20 	sts	0x204B, r18
     5cc:	30 93 4c 20 	sts	0x204C, r19

	TempLong = adc_a_control.adb2;
	TempLong = (TempLong*ADC_M)/ADC_C;
     5d0:	60 91 4d 20 	lds	r22, 0x204D
     5d4:	70 91 4e 20 	lds	r23, 0x204E
     5d8:	88 27       	eor	r24, r24
     5da:	77 fd       	sbrc	r23, 7
     5dc:	80 95       	com	r24
     5de:	98 2f       	mov	r25, r24
     5e0:	24 e4       	ldi	r18, 0x44	; 68
     5e2:	38 e4       	ldi	r19, 0x48	; 72
     5e4:	40 e0       	ldi	r20, 0x00	; 0
     5e6:	50 e0       	ldi	r21, 0x00	; 0
     5e8:	0e 94 ba 15 	call	0x2b74	; 0x2b74 <__mulsi3>
	adc_a_control.adb2 = TempLong;
     5ec:	20 e1       	ldi	r18, 0x10	; 16
     5ee:	37 e2       	ldi	r19, 0x27	; 39
     5f0:	40 e0       	ldi	r20, 0x00	; 0
     5f2:	50 e0       	ldi	r21, 0x00	; 0
     5f4:	0e 94 00 16 	call	0x2c00	; 0x2c00 <__udivmodsi4>
     5f8:	20 93 4d 20 	sts	0x204D, r18
     5fc:	30 93 4e 20 	sts	0x204E, r19

	TempLong = adc_a_control.adb3;
	TempLong = (TempLong*ADC_M)/ADC_C;
     600:	60 91 4f 20 	lds	r22, 0x204F
     604:	70 91 50 20 	lds	r23, 0x2050
     608:	88 27       	eor	r24, r24
     60a:	77 fd       	sbrc	r23, 7
     60c:	80 95       	com	r24
     60e:	98 2f       	mov	r25, r24
     610:	24 e4       	ldi	r18, 0x44	; 68
     612:	38 e4       	ldi	r19, 0x48	; 72
     614:	40 e0       	ldi	r20, 0x00	; 0
     616:	50 e0       	ldi	r21, 0x00	; 0
     618:	0e 94 ba 15 	call	0x2b74	; 0x2b74 <__mulsi3>
	adc_a_control.adb3 = TempLong;
     61c:	20 e1       	ldi	r18, 0x10	; 16
     61e:	37 e2       	ldi	r19, 0x27	; 39
     620:	40 e0       	ldi	r20, 0x00	; 0
     622:	50 e0       	ldi	r21, 0x00	; 0
     624:	0e 94 00 16 	call	0x2c00	; 0x2c00 <__udivmodsi4>
     628:	20 93 4f 20 	sts	0x204F, r18
     62c:	30 93 50 20 	sts	0x2050, r19
}
     630:	08 95       	ret

00000632 <CbCtrlDealRcData>:
** 修订人:
** 修订日期:
**------------------------------------------------------------------------------------------------------------------------
*************************************************************************************************************************/
static void CbCtrlDealRcData(USART_data_t* p_usart_data, CB_CTRL_DATA_STRUCT* p_Xbot_receive)
{
     632:	cf 92       	push	r12
     634:	df 92       	push	r13
     636:	ef 92       	push	r14
     638:	ff 92       	push	r15
     63a:	0f 93       	push	r16
     63c:	1f 93       	push	r17
     63e:	cf 93       	push	r28
     640:	df 93       	push	r29
     642:	8c 01       	movw	r16, r24
     644:	eb 01       	movw	r28, r22
			DataIndex++;
		}
		else if (DataIndex == CB_RXD_LEN-1)
		{
			p_Xbot_receive->RxdDataBuf[DataIndex] = TempData;
			DataIndex++;
     646:	9d e0       	ldi	r25, 0x0D	; 13
     648:	c9 2e       	mov	r12, r25

			/*******    求校验和       *******/
			p_Xbot_receive->RxdCheckSum = 0;

			for(TempCount=0;TempCount<CB_RXD_LEN-1;TempCount++)
     64a:	8c e0       	ldi	r24, 0x0C	; 12
     64c:	e8 2e       	mov	r14, r24
     64e:	f1 2c       	mov	r15, r1
     650:	e6 0e       	add	r14, r22
     652:	f7 1e       	adc	r15, r23
				DataIndex = 0;
			}
			else
			{
				p_Xbot_receive->RxdDataBuf[DataIndex] = TempData;
				DataIndex++;
     654:	dd 24       	eor	r13, r13
     656:	d3 94       	inc	r13
     658:	4c c0       	rjmp	.+152    	; 0x6f2 <CbCtrlDealRcData+0xc0>

	static uint8_t DataIndex = 0;

	while (USART_RXBufferData_Available(p_usart_data))
	{
		TempData = USART_RXBuffer_GetByte(p_usart_data);
     65a:	c8 01       	movw	r24, r16
     65c:	0e 94 5e 0d 	call	0x1abc	; 0x1abc <USART_RXBuffer_GetByte>

		if (DataIndex == 0X00)
     660:	90 91 58 20 	lds	r25, 0x2058
     664:	99 23       	and	r25, r25
     666:	39 f4       	brne	.+14     	; 0x676 <CbCtrlDealRcData+0x44>
		{
			if(CBDIS_RXD_START != TempData)
     668:	85 3a       	cpi	r24, 0xA5	; 165
     66a:	09 f0       	breq	.+2      	; 0x66e <CbCtrlDealRcData+0x3c>
     66c:	40 c0       	rjmp	.+128    	; 0x6ee <CbCtrlDealRcData+0xbc>
			{
				DataIndex = 0;
			}
			else
			{
				p_Xbot_receive->RxdDataBuf[DataIndex] = TempData;
     66e:	8d 87       	std	Y+13, r24	; 0x0d
				DataIndex++;
     670:	d0 92 58 20 	sts	0x2058, r13
     674:	3e c0       	rjmp	.+124    	; 0x6f2 <CbCtrlDealRcData+0xc0>
			}
		}
		else if (DataIndex < CB_RXD_LEN-1)
     676:	9c 30       	cpi	r25, 0x0C	; 12
     678:	40 f4       	brcc	.+16     	; 0x68a <CbCtrlDealRcData+0x58>
		{
			p_Xbot_receive->RxdDataBuf[DataIndex] = TempData;
     67a:	fe 01       	movw	r30, r28
     67c:	e9 0f       	add	r30, r25
     67e:	f1 1d       	adc	r31, r1
     680:	85 87       	std	Z+13, r24	; 0x0d
			DataIndex++;
     682:	9f 5f       	subi	r25, 0xFF	; 255
     684:	90 93 58 20 	sts	0x2058, r25
     688:	34 c0       	rjmp	.+104    	; 0x6f2 <CbCtrlDealRcData+0xc0>
		}
		else if (DataIndex == CB_RXD_LEN-1)
     68a:	9c 30       	cpi	r25, 0x0C	; 12
     68c:	81 f5       	brne	.+96     	; 0x6ee <CbCtrlDealRcData+0xbc>
		{
			p_Xbot_receive->RxdDataBuf[DataIndex] = TempData;
     68e:	89 8f       	std	Y+25, r24	; 0x19
			DataIndex++;
     690:	c0 92 58 20 	sts	0x2058, r12

			/*******    求校验和       *******/
			p_Xbot_receive->RxdCheckSum = 0;
     694:	1b 8e       	std	Y+27, r1	; 0x1b
     696:	fe 01       	movw	r30, r28

			for(TempCount=0;TempCount<CB_RXD_LEN-1;TempCount++)
			{
				p_Xbot_receive->RxdCheckSum += p_Xbot_receive->RxdDataBuf[TempCount];
     698:	9b 8d       	ldd	r25, Y+27	; 0x1b
     69a:	85 85       	ldd	r24, Z+13	; 0x0d
     69c:	98 0f       	add	r25, r24
     69e:	9b 8f       	std	Y+27, r25	; 0x1b
     6a0:	31 96       	adiw	r30, 0x01	; 1
			DataIndex++;

			/*******    求校验和       *******/
			p_Xbot_receive->RxdCheckSum = 0;

			for(TempCount=0;TempCount<CB_RXD_LEN-1;TempCount++)
     6a2:	ee 15       	cp	r30, r14
     6a4:	ff 05       	cpc	r31, r15
     6a6:	c1 f7       	brne	.-16     	; 0x698 <CbCtrlDealRcData+0x66>
			{
				p_Xbot_receive->RxdCheckSum += p_Xbot_receive->RxdDataBuf[TempCount];
			}

			/******* 如果校验和对，解析指令 *******/
			if(p_Xbot_receive->RxdDataBuf[CB_RXD_LEN-1] == p_Xbot_receive->RxdCheckSum )
     6a8:	89 8d       	ldd	r24, Y+25	; 0x19
     6aa:	89 17       	cp	r24, r25
     6ac:	01 f5       	brne	.+64     	; 0x6ee <CbCtrlDealRcData+0xbc>

inline static void CbCtrlRcSetState(CB_CTRL_DATA_STRUCT* pDa)
{
	uint8_t FeedIndex;

	if((pDa->RxdDataBuf[1]&0x80)!=0x80)
     6ae:	8e 85       	ldd	r24, Y+14	; 0x0e
     6b0:	87 ff       	sbrs	r24, 7
     6b2:	1d c0       	rjmp	.+58     	; 0x6ee <CbCtrlDealRcData+0xbc>
		return;

	FeedIndex = pDa->RxdDataBuf[1]&0x03;
     6b4:	83 70       	andi	r24, 0x03	; 3

	if(FeedIndex == 0x00)
     6b6:	39 f4       	brne	.+14     	; 0x6c6 <CbCtrlDealRcData+0x94>
	{
		pDa->Arm1Angle = pDa->RxdDataBuf[4];
     6b8:	89 89       	ldd	r24, Y+17	; 0x11
     6ba:	8d a7       	std	Y+45, r24	; 0x2d
		pDa->Arm5Angle = pDa->RxdDataBuf[5];
     6bc:	8a 89       	ldd	r24, Y+18	; 0x12
     6be:	89 ab       	std	Y+49, r24	; 0x31
		pDa->HandWidth = pDa->RxdDataBuf[6];
     6c0:	8b 89       	ldd	r24, Y+19	; 0x13
     6c2:	8c ab       	std	Y+52, r24	; 0x34
     6c4:	14 c0       	rjmp	.+40     	; 0x6ee <CbCtrlDealRcData+0xbc>
	}
	else if(FeedIndex == 0x01)
     6c6:	81 30       	cpi	r24, 0x01	; 1
     6c8:	39 f4       	brne	.+14     	; 0x6d8 <CbCtrlDealRcData+0xa6>
	{
		pDa->Arm2Angle = pDa->RxdDataBuf[4];
     6ca:	89 89       	ldd	r24, Y+17	; 0x11
     6cc:	8e a7       	std	Y+46, r24	; 0x2e
		pDa->Arm6Angle = pDa->RxdDataBuf[5];
     6ce:	8a 89       	ldd	r24, Y+18	; 0x12
     6d0:	8a ab       	std	Y+50, r24	; 0x32
		pDa->Arm0Angle = pDa->RxdDataBuf[6];
     6d2:	8b 89       	ldd	r24, Y+19	; 0x13
     6d4:	8c a7       	std	Y+44, r24	; 0x2c
     6d6:	0b c0       	rjmp	.+22     	; 0x6ee <CbCtrlDealRcData+0xbc>
     6d8:	99 89       	ldd	r25, Y+17	; 0x11
     6da:	2a 89       	ldd	r18, Y+18	; 0x12
	}
	else if(FeedIndex == 0x02)
     6dc:	82 30       	cpi	r24, 0x02	; 2
     6de:	19 f4       	brne	.+6      	; 0x6e6 <CbCtrlDealRcData+0xb4>
	{
		pDa->Arm3Angle = pDa->RxdDataBuf[4];
     6e0:	9f a7       	std	Y+47, r25	; 0x2f
		pDa->Arm7Angle = pDa->RxdDataBuf[5];
     6e2:	2b ab       	std	Y+51, r18	; 0x33
     6e4:	04 c0       	rjmp	.+8      	; 0x6ee <CbCtrlDealRcData+0xbc>
	}
	else
	{
		pDa->Arm4Angle 		= pDa->RxdDataBuf[4];
     6e6:	98 ab       	std	Y+48, r25	; 0x30
		pDa->CamPtAngle 	= pDa->RxdDataBuf[5];
     6e8:	2d ab       	std	Y+53, r18	; 0x35
		pDa->RobotSelfPowerVal = pDa->RxdDataBuf[6];
     6ea:	8b 89       	ldd	r24, Y+19	; 0x13
     6ec:	89 af       	std	Y+57, r24	; 0x39
			/******* 复位，重新开始新的一帧探测 *******/
			DataIndex = 0;
		}
		else
		{
			DataIndex = 0;
     6ee:	10 92 58 20 	sts	0x2058, r1
{
	uint8_t TempData,TempCount;

	static uint8_t DataIndex = 0;

	while (USART_RXBufferData_Available(p_usart_data))
     6f2:	c8 01       	movw	r24, r16
     6f4:	0e 94 54 0d 	call	0x1aa8	; 0x1aa8 <USART_RXBufferData_Available>
     6f8:	88 23       	and	r24, r24
     6fa:	09 f0       	breq	.+2      	; 0x6fe <CbCtrlDealRcData+0xcc>
     6fc:	ae cf       	rjmp	.-164    	; 0x65a <CbCtrlDealRcData+0x28>
		{
			DataIndex = 0;
		}
	}

}
     6fe:	df 91       	pop	r29
     700:	cf 91       	pop	r28
     702:	1f 91       	pop	r17
     704:	0f 91       	pop	r16
     706:	ff 90       	pop	r15
     708:	ef 90       	pop	r14
     70a:	df 90       	pop	r13
     70c:	cf 90       	pop	r12
     70e:	08 95       	ret

00000710 <CbDealCtrl>:

/*******  工作在5ms的定时器内  *******/
#define TXD_ONE_BYTE_TIME	2
#define TXD_ONE_FRAME_TIME	25
static void CbDealCtrl(void)
{
     710:	6f 92       	push	r6
     712:	7f 92       	push	r7
     714:	8f 92       	push	r8
     716:	9f 92       	push	r9
     718:	af 92       	push	r10
     71a:	bf 92       	push	r11
     71c:	cf 92       	push	r12
     71e:	df 92       	push	r13
     720:	ef 92       	push	r14
     722:	ff 92       	push	r15
     724:	0f 93       	push	r16
     726:	1f 93       	push	r17
     728:	cf 93       	push	r28
     72a:	df 93       	push	r29
////			}
////
//			FrameTimeTick++;
////		}
//	}
	if(TimeTick <TXD_ONE_FRAME_TIME-1);
     72c:	80 91 5b 20 	lds	r24, 0x205B
     730:	90 91 5c 20 	lds	r25, 0x205C
     734:	88 31       	cpi	r24, 0x18	; 24
     736:	91 05       	cpc	r25, r1
     738:	08 f4       	brcc	.+2      	; 0x73c <CbDealCtrl+0x2c>
     73a:	3d c4       	rjmp	.+2170   	; 0xfb6 <CbDealCtrl+0x8a6>
	else if(TimeTick == TXD_ONE_FRAME_TIME-1)
     73c:	48 97       	sbiw	r24, 0x18	; 24
     73e:	31 f4       	brne	.+12     	; 0x74c <CbDealCtrl+0x3c>
		adc_a_control.pStart();
     740:	e0 91 55 20 	lds	r30, 0x2055
     744:	f0 91 56 20 	lds	r31, 0x2056
     748:	09 95       	icall
     74a:	35 c4       	rjmp	.+2154   	; 0xfb6 <CbDealCtrl+0x8a6>
	else if (TimeTick >= TXD_ONE_FRAME_TIME)
	{
		AdjustAdc();
     74c:	0e 94 f8 01 	call	0x3f0	; 0x3f0 <AdjustAdc>
//	PC5		IN_COM_SW		有线无线切换检测
//
//	PD0		OUT_COM_CTRL	有线无线切换控制
	static uint8_t TempComState;

	TempComState   = PORT_GetPortValue( &PORTC );
     750:	80 91 48 06 	lds	r24, 0x0648
	TempComState >>= 0x05;
	TempComState  &= 0x01;
     754:	82 95       	swap	r24
     756:	86 95       	lsr	r24
     758:	81 70       	andi	r24, 0x01	; 1
     75a:	80 93 5d 20 	sts	0x205D, r24

	if(TempComState == 0x01)	//为无线控制
     75e:	81 30       	cpi	r24, 0x01	; 1
     760:	21 f4       	brne	.+8      	; 0x76a <CbDealCtrl+0x5a>
	{
		PORTD.OUTCLR = PIN0_bm;
     762:	e0 e6       	ldi	r30, 0x60	; 96
     764:	f6 e0       	ldi	r31, 0x06	; 6
     766:	86 83       	std	Z+6, r24	; 0x06
     768:	05 c0       	rjmp	.+10     	; 0x774 <CbDealCtrl+0x64>
		CbCtrlData.ComSwState = COM_WIRELESS_EN;
	}
	else						//为有线控制
	{
		PORTD.OUTSET  = PIN0_bm;
     76a:	81 e0       	ldi	r24, 0x01	; 1
     76c:	e0 e6       	ldi	r30, 0x60	; 96
     76e:	f6 e0       	ldi	r31, 0x06	; 6
     770:	85 83       	std	Z+5, r24	; 0x05
		CbCtrlData.ComSwState = COM_WIRE_EN;
     772:	82 e0       	ldi	r24, 0x02	; 2
     774:	80 93 9e 20 	sts	0x209E, r24
	uint8_t TempHeadX,TempHeadY,TempHeadFocus;
	uint8_t TempChar;

	unsigned char TempPINF,TempPINE;

	TempPINE = PORT_GetPortValue( &PORTE );
     778:	e0 91 88 06 	lds	r30, 0x0688
	TempPINF = PORT_GetPortValue( &PORTF );
     77c:	80 91 a8 06 	lds	r24, 0x06A8

	TempStateJoint1 = TempPINF&0x03;
     780:	38 2f       	mov	r19, r24
     782:	33 70       	andi	r19, 0x03	; 3
	TempStateJoint2 = (TempPINF>>2)&0x03;
     784:	86 95       	lsr	r24
     786:	86 95       	lsr	r24
     788:	58 2f       	mov	r21, r24
     78a:	53 70       	andi	r21, 0x03	; 3
	TempStateJoint3 = (TempPINF>>4)&0x03;
     78c:	86 95       	lsr	r24
     78e:	86 95       	lsr	r24
     790:	68 2f       	mov	r22, r24
     792:	63 70       	andi	r22, 0x03	; 3
	TempStateJoint4 = (TempPINF>>6)&0x03;
     794:	78 2f       	mov	r23, r24
     796:	76 95       	lsr	r23
     798:	76 95       	lsr	r23
	CbCtrlData.Arm50Ctrl 		= 0x00;
	CbCtrlData.Arm78Ctrl 		= 0x00;
	CbCtrlData.Arm6Ctrl 		= 0x00;

	/********************设置机械臂速度******************/
	TempArmSpeed = adc_a_control.ad0;
     79a:	20 91 3a 20 	lds	r18, 0x203A
	TempArmSpeed >>= 0x09;
     79e:	82 2f       	mov	r24, r18
     7a0:	86 95       	lsr	r24
     7a2:	90 e0       	ldi	r25, 0x00	; 0
	TempArmSpeed += 1;
     7a4:	01 96       	adiw	r24, 0x01	; 1
	if(TempArmSpeed>0x0007)
     7a6:	88 30       	cpi	r24, 0x08	; 8
     7a8:	91 05       	cpc	r25, r1
     7aa:	18 f0       	brcs	.+6      	; 0x7b2 <CbDealCtrl+0xa2>
     7ac:	87 e0       	ldi	r24, 0x07	; 7
     7ae:	90 e0       	ldi	r25, 0x00	; 0
     7b0:	05 c0       	rjmp	.+10     	; 0x7bc <CbDealCtrl+0xac>
		TempArmSpeed =0x0007;
	else if(TempArmSpeed<0x0002)
     7b2:	81 30       	cpi	r24, 0x01	; 1
     7b4:	91 05       	cpc	r25, r1
     7b6:	11 f4       	brne	.+4      	; 0x7bc <CbDealCtrl+0xac>
     7b8:	82 e0       	ldi	r24, 0x02	; 2
     7ba:	90 e0       	ldi	r25, 0x00	; 0
		TempArmSpeed =0x0002;

	//TempArmSpeed = 0x00 为自由状态
	//TempArmSpeed = 0x01 为速度为0状态
	CbCtrlData.Arm12356Speed = TempArmSpeed;
     7bc:	48 2f       	mov	r20, r24
     7be:	80 93 9d 20 	sts	0x209D, r24


	/******************* ARM1 ****************************/
	//	PF0		IN_JOINT1_A		底座左转
	//	PF1		IN_JOINT1_B		底座右转
	if( TempStateJoint1 == 0x02)			//底盘左转
     7c2:	32 30       	cpi	r19, 0x02	; 2
     7c4:	21 f4       	brne	.+8      	; 0x7ce <CbDealCtrl+0xbe>
		CbCtrlData.Arm12Ctrl |= (0x80|(CbCtrlData.Arm12356Speed<<4));
     7c6:	82 95       	swap	r24
     7c8:	80 7f       	andi	r24, 0xF0	; 240
     7ca:	80 68       	ori	r24, 0x80	; 128
     7cc:	08 c0       	rjmp	.+16     	; 0x7de <CbDealCtrl+0xce>
	else if( TempStateJoint1 == 0x01)		//底盘右转
     7ce:	31 30       	cpi	r19, 0x01	; 1
     7d0:	49 f4       	brne	.+18     	; 0x7e4 <CbDealCtrl+0xd4>
		CbCtrlData.Arm12Ctrl |= (0x00|(CbCtrlData.Arm12356Speed<<4));
     7d2:	90 e0       	ldi	r25, 0x00	; 0
     7d4:	b4 e0       	ldi	r27, 0x04	; 4
     7d6:	88 0f       	add	r24, r24
     7d8:	99 1f       	adc	r25, r25
     7da:	ba 95       	dec	r27
     7dc:	e1 f7       	brne	.-8      	; 0x7d6 <CbDealCtrl+0xc6>
     7de:	80 93 95 20 	sts	0x2095, r24
     7e2:	02 c0       	rjmp	.+4      	; 0x7e8 <CbDealCtrl+0xd8>
	else
		CbCtrlData.Arm12Ctrl |= 0x00;
     7e4:	10 92 95 20 	sts	0x2095, r1

	/******************** ARM2 ***************************/
	//	PF2		IN_JOINT2_A		大臂下俯
	//	PF3		IN_JOINT2_B		大臂上仰
	if( TempStateJoint2 == 0x02)			//大臂下俯
     7e8:	52 30       	cpi	r21, 0x02	; 2
     7ea:	19 f4       	brne	.+6      	; 0x7f2 <CbDealCtrl+0xe2>
		CbCtrlData.Arm12Ctrl |= (0x00|(CbCtrlData.Arm12356Speed<<0));
     7ec:	80 91 95 20 	lds	r24, 0x2095
     7f0:	05 c0       	rjmp	.+10     	; 0x7fc <CbDealCtrl+0xec>
	else if( TempStateJoint2 == 0x01)		//大臂上仰
     7f2:	51 30       	cpi	r21, 0x01	; 1
     7f4:	31 f4       	brne	.+12     	; 0x802 <CbDealCtrl+0xf2>
		CbCtrlData.Arm12Ctrl |= (0x08|(CbCtrlData.Arm12356Speed<<0));
     7f6:	80 91 95 20 	lds	r24, 0x2095
     7fa:	88 60       	ori	r24, 0x08	; 8
     7fc:	84 2b       	or	r24, r20
     7fe:	80 93 95 20 	sts	0x2095, r24
		CbCtrlData.Arm12Ctrl |= 0x00;

	/********************* ARM3 ****************************/
	//	PF4		IN_JOINT3_A		小臂上仰
	//	PF5		IN_JOINT3_B		小臂下俯
	if( TempStateJoint3 == 0x02)			//小臂上仰
     802:	62 30       	cpi	r22, 0x02	; 2
     804:	41 f4       	brne	.+16     	; 0x816 <CbDealCtrl+0x106>
		CbCtrlData.Arm34Ctrl |= (0x00|(CbCtrlData.Arm12356Speed<<4));
     806:	84 2f       	mov	r24, r20
     808:	90 e0       	ldi	r25, 0x00	; 0
     80a:	a4 e0       	ldi	r26, 0x04	; 4
     80c:	88 0f       	add	r24, r24
     80e:	99 1f       	adc	r25, r25
     810:	aa 95       	dec	r26
     812:	e1 f7       	brne	.-8      	; 0x80c <CbDealCtrl+0xfc>
     814:	06 c0       	rjmp	.+12     	; 0x822 <CbDealCtrl+0x112>
	else if( TempStateJoint3 == 0x01)		//小臂下俯
     816:	61 30       	cpi	r22, 0x01	; 1
     818:	39 f4       	brne	.+14     	; 0x828 <CbDealCtrl+0x118>
		CbCtrlData.Arm34Ctrl |= (0x80|(CbCtrlData.Arm12356Speed<<4));
     81a:	84 2f       	mov	r24, r20
     81c:	82 95       	swap	r24
     81e:	80 7f       	andi	r24, 0xF0	; 240
     820:	80 68       	ori	r24, 0x80	; 128
     822:	80 93 96 20 	sts	0x2096, r24
     826:	02 c0       	rjmp	.+4      	; 0x82c <CbDealCtrl+0x11c>
	else
		CbCtrlData.Arm34Ctrl |= 0x00;
     828:	10 92 96 20 	sts	0x2096, r1

	/*****************************************************/
	/**************云台摇杆旋转控制机器人腕关节 ARM4 *******/
	TempHeadFocus = adc_a_control.ad6>>4;
     82c:	80 91 45 20 	lds	r24, 0x2045
     830:	90 91 46 20 	lds	r25, 0x2046
     834:	f4 e0       	ldi	r31, 0x04	; 4
     836:	95 95       	asr	r25
     838:	87 95       	ror	r24
     83a:	fa 95       	dec	r31
     83c:	e1 f7       	brne	.-8      	; 0x836 <CbDealCtrl+0x126>
     83e:	98 2f       	mov	r25, r24


static uint8_t GetHeadSpeed(uint8 InputAdc)
{

	if(InputAdc<HEAD_MID)
     840:	87 fd       	sbrc	r24, 7
     842:	03 c0       	rjmp	.+6      	; 0x84a <CbDealCtrl+0x13a>
		InputAdc = HEAD_MID1 - InputAdc;
     844:	80 e6       	ldi	r24, 0x60	; 96
     846:	89 1b       	sub	r24, r25
     848:	01 c0       	rjmp	.+2      	; 0x84c <CbDealCtrl+0x13c>
	else
		InputAdc = InputAdc - HEAD_MID2;
     84a:	80 5a       	subi	r24, 0xA0	; 160

	InputAdc >>= 0x03;
	InputAdc += 0x01;
     84c:	28 2f       	mov	r18, r24
     84e:	26 95       	lsr	r18
     850:	26 95       	lsr	r18
     852:	26 95       	lsr	r18
     854:	2f 5f       	subi	r18, 0xFF	; 255

	if(InputAdc > 0x07)
     856:	28 30       	cpi	r18, 0x08	; 8
     858:	10 f0       	brcs	.+4      	; 0x85e <CbDealCtrl+0x14e>
     85a:	27 e0       	ldi	r18, 0x07	; 7
     85c:	03 c0       	rjmp	.+6      	; 0x864 <CbDealCtrl+0x154>
		InputAdc = 0x07;
	else if(InputAdc < 0x02)
     85e:	22 30       	cpi	r18, 0x02	; 2
     860:	08 f4       	brcc	.+2      	; 0x864 <CbDealCtrl+0x154>
     862:	22 e0       	ldi	r18, 0x02	; 2
	/*****************************************************/
	/**************云台摇杆旋转控制机器人腕关节 ARM4 *******/
	TempHeadFocus = adc_a_control.ad6>>4;
	TempChar = GetHeadSpeed(TempHeadFocus);

	if(TempHeadFocus<HEAD_MID1)
     864:	90 36       	cpi	r25, 0x60	; 96
     866:	38 f4       	brcc	.+14     	; 0x876 <CbDealCtrl+0x166>
		CbCtrlData.Arm34Ctrl |= (0x08|(TempChar<<0));			//下俯，逆时针
     868:	80 91 96 20 	lds	r24, 0x2096
     86c:	88 60       	ori	r24, 0x08	; 8
     86e:	82 2b       	or	r24, r18
     870:	80 93 96 20 	sts	0x2096, r24
     874:	07 c0       	rjmp	.+14     	; 0x884 <CbDealCtrl+0x174>
	else if(TempHeadFocus<HEAD_MID2)
     876:	90 3a       	cpi	r25, 0xA0	; 160
     878:	28 f0       	brcs	.+10     	; 0x884 <CbDealCtrl+0x174>
		CbCtrlData.Arm34Ctrl |= 0X00;			//静止
	else
		CbCtrlData.Arm34Ctrl |= (0x00|(TempChar<<0));			//上仰，顺时针
     87a:	80 91 96 20 	lds	r24, 0x2096
     87e:	28 2b       	or	r18, r24
     880:	20 93 96 20 	sts	0x2096, r18

	/*****************************************************/
	/**************云台旋转控制 ARM7 *******/
	TempHeadX 	  = adc_a_control.ad5>>4;
     884:	80 91 43 20 	lds	r24, 0x2043
     888:	90 91 44 20 	lds	r25, 0x2044
     88c:	64 e0       	ldi	r22, 0x04	; 4
     88e:	95 95       	asr	r25
     890:	87 95       	ror	r24
     892:	6a 95       	dec	r22
     894:	e1 f7       	brne	.-8      	; 0x88e <CbDealCtrl+0x17e>
     896:	98 2f       	mov	r25, r24


static uint8_t GetHeadSpeed(uint8 InputAdc)
{

	if(InputAdc<HEAD_MID)
     898:	87 fd       	sbrc	r24, 7
     89a:	03 c0       	rjmp	.+6      	; 0x8a2 <CbDealCtrl+0x192>
		InputAdc = HEAD_MID1 - InputAdc;
     89c:	80 e6       	ldi	r24, 0x60	; 96
     89e:	89 1b       	sub	r24, r25
     8a0:	01 c0       	rjmp	.+2      	; 0x8a4 <CbDealCtrl+0x194>
	else
		InputAdc = InputAdc - HEAD_MID2;
     8a2:	80 5a       	subi	r24, 0xA0	; 160

	InputAdc >>= 0x03;
	InputAdc += 0x01;
     8a4:	86 95       	lsr	r24
     8a6:	86 95       	lsr	r24
     8a8:	86 95       	lsr	r24
     8aa:	8f 5f       	subi	r24, 0xFF	; 255

	if(InputAdc > 0x07)
     8ac:	88 30       	cpi	r24, 0x08	; 8
     8ae:	10 f0       	brcs	.+4      	; 0x8b4 <CbDealCtrl+0x1a4>
     8b0:	87 e0       	ldi	r24, 0x07	; 7
     8b2:	03 c0       	rjmp	.+6      	; 0x8ba <CbDealCtrl+0x1aa>
		InputAdc = 0x07;
	else if(InputAdc < 0x02)
     8b4:	82 30       	cpi	r24, 0x02	; 2
     8b6:	08 f4       	brcc	.+2      	; 0x8ba <CbDealCtrl+0x1aa>
     8b8:	82 e0       	ldi	r24, 0x02	; 2
	/*****************************************************/
	/**************云台旋转控制 ARM7 *******/
	TempHeadX 	  = adc_a_control.ad5>>4;
	TempChar = GetHeadSpeed(TempHeadX);

	if(TempHeadX<HEAD_MID1)
     8ba:	90 36       	cpi	r25, 0x60	; 96
     8bc:	38 f4       	brcc	.+14     	; 0x8cc <CbDealCtrl+0x1bc>
		CbCtrlData.Arm78Ctrl |= (0x00|(TempChar<<4));			//右旋
     8be:	90 e0       	ldi	r25, 0x00	; 0
     8c0:	54 e0       	ldi	r21, 0x04	; 4
     8c2:	88 0f       	add	r24, r24
     8c4:	99 1f       	adc	r25, r25
     8c6:	5a 95       	dec	r21
     8c8:	e1 f7       	brne	.-8      	; 0x8c2 <CbDealCtrl+0x1b2>
     8ca:	08 c0       	rjmp	.+16     	; 0x8dc <CbDealCtrl+0x1cc>
	else if(TempHeadX<HEAD_MID2)
     8cc:	90 3a       	cpi	r25, 0xA0	; 160
     8ce:	18 f4       	brcc	.+6      	; 0x8d6 <CbDealCtrl+0x1c6>
		CbCtrlData.Arm78Ctrl |= 0X00;							//静止
     8d0:	10 92 98 20 	sts	0x2098, r1
     8d4:	05 c0       	rjmp	.+10     	; 0x8e0 <CbDealCtrl+0x1d0>
	else
		CbCtrlData.Arm78Ctrl |= (0x80|(TempChar<<4));			//左旋
     8d6:	82 95       	swap	r24
     8d8:	80 7f       	andi	r24, 0xF0	; 240
     8da:	80 68       	ori	r24, 0x80	; 128
     8dc:	80 93 98 20 	sts	0x2098, r24

	/*****************************************************/
	/**************云台俯仰控制 ARM8 *******/
	TempHeadY 	  = adc_a_control.ad4>>4;
     8e0:	80 91 41 20 	lds	r24, 0x2041
     8e4:	90 91 42 20 	lds	r25, 0x2042
     8e8:	34 e0       	ldi	r19, 0x04	; 4
     8ea:	95 95       	asr	r25
     8ec:	87 95       	ror	r24
     8ee:	3a 95       	dec	r19
     8f0:	e1 f7       	brne	.-8      	; 0x8ea <CbDealCtrl+0x1da>
     8f2:	98 2f       	mov	r25, r24


static uint8_t GetHeadSpeed(uint8 InputAdc)
{

	if(InputAdc<HEAD_MID)
     8f4:	87 fd       	sbrc	r24, 7
     8f6:	03 c0       	rjmp	.+6      	; 0x8fe <CbDealCtrl+0x1ee>
		InputAdc = HEAD_MID1 - InputAdc;
     8f8:	80 e6       	ldi	r24, 0x60	; 96
     8fa:	89 1b       	sub	r24, r25
     8fc:	01 c0       	rjmp	.+2      	; 0x900 <CbDealCtrl+0x1f0>
	else
		InputAdc = InputAdc - HEAD_MID2;
     8fe:	80 5a       	subi	r24, 0xA0	; 160

	InputAdc >>= 0x03;
	InputAdc += 0x01;
     900:	28 2f       	mov	r18, r24
     902:	26 95       	lsr	r18
     904:	26 95       	lsr	r18
     906:	26 95       	lsr	r18
     908:	2f 5f       	subi	r18, 0xFF	; 255

	if(InputAdc > 0x07)
     90a:	28 30       	cpi	r18, 0x08	; 8
     90c:	10 f0       	brcs	.+4      	; 0x912 <CbDealCtrl+0x202>
     90e:	27 e0       	ldi	r18, 0x07	; 7
     910:	03 c0       	rjmp	.+6      	; 0x918 <CbDealCtrl+0x208>
		InputAdc = 0x07;
	else if(InputAdc < 0x02)
     912:	22 30       	cpi	r18, 0x02	; 2
     914:	08 f4       	brcc	.+2      	; 0x918 <CbDealCtrl+0x208>
     916:	22 e0       	ldi	r18, 0x02	; 2
	/*****************************************************/
	/**************云台俯仰控制 ARM8 *******/
	TempHeadY 	  = adc_a_control.ad4>>4;
	TempChar = GetHeadSpeed(TempHeadY);

	if(TempHeadY<HEAD_MID1)
     918:	90 36       	cpi	r25, 0x60	; 96
     91a:	38 f4       	brcc	.+14     	; 0x92a <CbDealCtrl+0x21a>
		CbCtrlData.Arm78Ctrl |= (0x08|(TempChar<<0));			//下俯
     91c:	80 91 98 20 	lds	r24, 0x2098
     920:	88 60       	ori	r24, 0x08	; 8
     922:	82 2b       	or	r24, r18
     924:	80 93 98 20 	sts	0x2098, r24
     928:	07 c0       	rjmp	.+14     	; 0x938 <CbDealCtrl+0x228>
	else if(TempHeadY<HEAD_MID2)
     92a:	90 3a       	cpi	r25, 0xA0	; 160
     92c:	28 f0       	brcs	.+10     	; 0x938 <CbDealCtrl+0x228>
		CbCtrlData.Arm78Ctrl |= 0X00;							//静止
	else
		CbCtrlData.Arm78Ctrl |= (0x00|(TempChar<<0));			//上仰
     92e:	80 91 98 20 	lds	r24, 0x2098
     932:	28 2b       	or	r18, r24
     934:	20 93 98 20 	sts	0x2098, r18


	/******************** ARM5 ****************************/
	//	PF6		IN_JOINT4_A		手爪右转
	//	PF7		IN_JOINT4_B		手爪左转
	if( TempStateJoint4 == 0x02)			//手爪右转
     938:	72 30       	cpi	r23, 0x02	; 2
     93a:	41 f4       	brne	.+16     	; 0x94c <CbDealCtrl+0x23c>
		CbCtrlData.Arm50Ctrl |= (0x00|(CbCtrlData.Arm12356Speed<<4));
     93c:	84 2f       	mov	r24, r20
     93e:	90 e0       	ldi	r25, 0x00	; 0
     940:	24 e0       	ldi	r18, 0x04	; 4
     942:	88 0f       	add	r24, r24
     944:	99 1f       	adc	r25, r25
     946:	2a 95       	dec	r18
     948:	e1 f7       	brne	.-8      	; 0x942 <CbDealCtrl+0x232>
     94a:	06 c0       	rjmp	.+12     	; 0x958 <CbDealCtrl+0x248>
	else if( TempStateJoint4 == 0x01)		//手爪左转
     94c:	71 30       	cpi	r23, 0x01	; 1
     94e:	39 f4       	brne	.+14     	; 0x95e <CbDealCtrl+0x24e>
		CbCtrlData.Arm50Ctrl |= (0x80|(CbCtrlData.Arm12356Speed<<4));
     950:	84 2f       	mov	r24, r20
     952:	82 95       	swap	r24
     954:	80 7f       	andi	r24, 0xF0	; 240
     956:	80 68       	ori	r24, 0x80	; 128
     958:	80 93 97 20 	sts	0x2097, r24
     95c:	02 c0       	rjmp	.+4      	; 0x962 <CbDealCtrl+0x252>
	else
		CbCtrlData.Arm50Ctrl |= 0x00;
     95e:	10 92 97 20 	sts	0x2097, r1

	/*****************************************************/
	/**************前支臂 ARM0 *******/
	TempMoveZ 	  = adc_a_control.adb1>>4;
     962:	20 91 4b 20 	lds	r18, 0x204B
     966:	30 91 4c 20 	lds	r19, 0x204C
     96a:	04 e0       	ldi	r16, 0x04	; 4
     96c:	35 95       	asr	r19
     96e:	27 95       	ror	r18
     970:	0a 95       	dec	r16
     972:	e1 f7       	brne	.-8      	; 0x96c <CbDealCtrl+0x25c>


static uint8_t GetHeadSpeed(uint8 InputAdc)
{

	if(InputAdc<HEAD_MID)
     974:	27 fd       	sbrc	r18, 7
     976:	03 c0       	rjmp	.+6      	; 0x97e <CbDealCtrl+0x26e>
		InputAdc = HEAD_MID1 - InputAdc;
     978:	80 e6       	ldi	r24, 0x60	; 96
     97a:	82 1b       	sub	r24, r18
     97c:	02 c0       	rjmp	.+4      	; 0x982 <CbDealCtrl+0x272>
	else
		InputAdc = InputAdc - HEAD_MID2;
     97e:	82 2f       	mov	r24, r18
     980:	80 5a       	subi	r24, 0xA0	; 160

	InputAdc >>= 0x03;
	InputAdc += 0x01;
     982:	98 2f       	mov	r25, r24
     984:	96 95       	lsr	r25
     986:	96 95       	lsr	r25
     988:	96 95       	lsr	r25
     98a:	9f 5f       	subi	r25, 0xFF	; 255

	if(InputAdc > 0x07)
     98c:	98 30       	cpi	r25, 0x08	; 8
     98e:	10 f0       	brcs	.+4      	; 0x994 <CbDealCtrl+0x284>
     990:	97 e0       	ldi	r25, 0x07	; 7
     992:	03 c0       	rjmp	.+6      	; 0x99a <CbDealCtrl+0x28a>
		InputAdc = 0x07;
	else if(InputAdc < 0x02)
     994:	92 30       	cpi	r25, 0x02	; 2
     996:	08 f4       	brcc	.+2      	; 0x99a <CbDealCtrl+0x28a>
     998:	92 e0       	ldi	r25, 0x02	; 2
	/*****************************************************/
	/**************前支臂 ARM0 *******/
	TempMoveZ 	  = adc_a_control.adb1>>4;
	TempChar = GetHeadSpeed(TempMoveZ);

	if(TempMoveZ<HEAD_MID1)
     99a:	20 36       	cpi	r18, 0x60	; 96
     99c:	31 05       	cpc	r19, r1
     99e:	30 f4       	brcc	.+12     	; 0x9ac <CbDealCtrl+0x29c>
		CbCtrlData.Arm50Ctrl |= (0x00|(TempChar<<0));			//下俯，逆时针
     9a0:	80 91 97 20 	lds	r24, 0x2097
     9a4:	98 2b       	or	r25, r24
     9a6:	90 93 97 20 	sts	0x2097, r25
     9aa:	09 c0       	rjmp	.+18     	; 0x9be <CbDealCtrl+0x2ae>
	else if(TempMoveZ<HEAD_MID2)
     9ac:	20 3a       	cpi	r18, 0xA0	; 160
     9ae:	31 05       	cpc	r19, r1
     9b0:	30 f0       	brcs	.+12     	; 0x9be <CbDealCtrl+0x2ae>
		CbCtrlData.Arm50Ctrl |= 0X00;							//静止
	else
		CbCtrlData.Arm50Ctrl |= (0x08|(TempChar<<0));			//上仰，顺时针
     9b2:	80 91 97 20 	lds	r24, 0x2097
     9b6:	88 60       	ori	r24, 0x08	; 8
     9b8:	89 2b       	or	r24, r25
     9ba:	80 93 97 20 	sts	0x2097, r24


	/*********************手爪抓持***************************/
	//	PE5		IN_HANDA		手爪抓持
	//	PE6		IN_HANDB		手爪松开
	TempStateHand   = (TempPINE>>5)&0x03;
     9be:	8e 2f       	mov	r24, r30
     9c0:	82 95       	swap	r24
     9c2:	86 95       	lsr	r24
     9c4:	83 70       	andi	r24, 0x03	; 3

	if( TempStateHand == 0x02)			//手爪抓持
     9c6:	82 30       	cpi	r24, 0x02	; 2
     9c8:	31 f4       	brne	.+12     	; 0x9d6 <CbDealCtrl+0x2c6>
		CbCtrlData.Arm6Ctrl |= (0x80|(CbCtrlData.Arm12356Speed<<4));
     9ca:	42 95       	swap	r20
     9cc:	40 7f       	andi	r20, 0xF0	; 240
     9ce:	40 68       	ori	r20, 0x80	; 128
     9d0:	40 93 99 20 	sts	0x2099, r20
     9d4:	0e c0       	rjmp	.+28     	; 0x9f2 <CbDealCtrl+0x2e2>
	else if( TempStateHand == 0x01)		//手爪松开
     9d6:	81 30       	cpi	r24, 0x01	; 1
     9d8:	51 f4       	brne	.+20     	; 0x9ee <CbDealCtrl+0x2de>
		CbCtrlData.Arm6Ctrl |= (0x00|(CbCtrlData.Arm12356Speed<<4));
     9da:	84 2f       	mov	r24, r20
     9dc:	90 e0       	ldi	r25, 0x00	; 0
     9de:	14 e0       	ldi	r17, 0x04	; 4
     9e0:	88 0f       	add	r24, r24
     9e2:	99 1f       	adc	r25, r25
     9e4:	1a 95       	dec	r17
     9e6:	e1 f7       	brne	.-8      	; 0x9e0 <CbDealCtrl+0x2d0>
     9e8:	80 93 99 20 	sts	0x2099, r24
     9ec:	02 c0       	rjmp	.+4      	; 0x9f2 <CbDealCtrl+0x2e2>
	else
		CbCtrlData.Arm6Ctrl |= 0x00;
     9ee:	10 92 99 20 	sts	0x2099, r1

	//设置抓持力量
	TempHandForce = 0x0F;

	CbCtrlData.Arm6Ctrl |= (TempHandForce&0x0F);
     9f2:	80 91 99 20 	lds	r24, 0x2099
     9f6:	8f 60       	ori	r24, 0x0F	; 15
     9f8:	80 93 99 20 	sts	0x2099, r24

	int16_t TempMoveX,TempMoveY,TempMoveK,TempMoveZ;
	int16_t TempSpeedL = 0,TempSpeedR = 0;
	static int16_t SetSpeedL = 0,SetSpeedR = 0;

	TempMoveX 	  = adc_a_control.adb0>>2;
     9fc:	80 91 49 20 	lds	r24, 0x2049
     a00:	90 91 4a 20 	lds	r25, 0x204A
     a04:	95 95       	asr	r25
     a06:	87 95       	ror	r24
     a08:	95 95       	asr	r25
     a0a:	87 95       	ror	r24
	TempMoveY 	  = adc_a_control.ad7>>2;
     a0c:	60 91 47 20 	lds	r22, 0x2047
     a10:	70 91 48 20 	lds	r23, 0x2048
     a14:	75 95       	asr	r23
     a16:	67 95       	ror	r22
     a18:	75 95       	asr	r23
     a1a:	67 95       	ror	r22
	TempMoveZ 	  = adc_a_control.adb1>>2;
	TempMoveK 	  = adc_a_control.adb2>>4;
     a1c:	20 91 4d 20 	lds	r18, 0x204D
     a20:	30 91 4e 20 	lds	r19, 0x204E



	/**************修正X轴AD值*******************/
	if(TempMoveX<MOVE_X_MID1)
     a24:	41 e0       	ldi	r20, 0x01	; 1
     a26:	80 3c       	cpi	r24, 0xC0	; 192
     a28:	94 07       	cpc	r25, r20
     a2a:	24 f4       	brge	.+8      	; 0xa34 <CbDealCtrl+0x324>
		TempMoveX = (TempMoveX-MOVE_X_MID1);
     a2c:	8c 01       	movw	r16, r24
     a2e:	00 5c       	subi	r16, 0xC0	; 192
     a30:	11 40       	sbci	r17, 0x01	; 1
     a32:	0a c0       	rjmp	.+20     	; 0xa48 <CbDealCtrl+0x338>
	else if(TempMoveX<MOVE_X_MID2)
     a34:	e2 e0       	ldi	r30, 0x02	; 2
     a36:	80 34       	cpi	r24, 0x40	; 64
     a38:	9e 07       	cpc	r25, r30
     a3a:	1c f4       	brge	.+6      	; 0xa42 <CbDealCtrl+0x332>
     a3c:	00 e0       	ldi	r16, 0x00	; 0
     a3e:	10 e0       	ldi	r17, 0x00	; 0
     a40:	03 c0       	rjmp	.+6      	; 0xa48 <CbDealCtrl+0x338>
		TempMoveX = 0x00;
	else
		TempMoveX = (TempMoveX-MOVE_X_MID2);
     a42:	8c 01       	movw	r16, r24
     a44:	00 54       	subi	r16, 0x40	; 64
     a46:	12 40       	sbci	r17, 0x02	; 2

	/**************修正Y轴AD值*******************/
	if(TempMoveY<MOVE_Y_MID1)
     a48:	f1 e0       	ldi	r31, 0x01	; 1
     a4a:	60 3c       	cpi	r22, 0xC0	; 192
     a4c:	7f 07       	cpc	r23, r31
     a4e:	24 f4       	brge	.+8      	; 0xa58 <CbDealCtrl+0x348>
		TempMoveY = (TempMoveY-MOVE_Y_MID1);
     a50:	eb 01       	movw	r28, r22
     a52:	c0 5c       	subi	r28, 0xC0	; 192
     a54:	d1 40       	sbci	r29, 0x01	; 1
     a56:	0a c0       	rjmp	.+20     	; 0xa6c <CbDealCtrl+0x35c>
	else if(TempMoveY<MOVE_Y_MID2)
     a58:	42 e0       	ldi	r20, 0x02	; 2
     a5a:	60 34       	cpi	r22, 0x40	; 64
     a5c:	74 07       	cpc	r23, r20
     a5e:	1c f4       	brge	.+6      	; 0xa66 <CbDealCtrl+0x356>
     a60:	c0 e0       	ldi	r28, 0x00	; 0
     a62:	d0 e0       	ldi	r29, 0x00	; 0
     a64:	03 c0       	rjmp	.+6      	; 0xa6c <CbDealCtrl+0x35c>
		TempMoveY = 0x00;
	else
		TempMoveY = (TempMoveY-MOVE_Y_MID2);
     a66:	eb 01       	movw	r28, r22
     a68:	c0 54       	subi	r28, 0x40	; 64
     a6a:	d2 40       	sbci	r29, 0x02	; 2
{
	int32_t TempLong;

	TempLong = Input_Adc_Z;

	TempLong = InputAdc_Y+InputAdc_X;
     a6c:	c8 01       	movw	r24, r16
     a6e:	64 e0       	ldi	r22, 0x04	; 4
     a70:	70 e0       	ldi	r23, 0x00	; 0
     a72:	0e 94 ed 15 	call	0x2bda	; 0x2bda <__divmodhi4>
     a76:	ce 01       	movw	r24, r28
     a78:	86 1b       	sub	r24, r22
     a7a:	97 0b       	sbc	r25, r23
     a7c:	bc 01       	movw	r22, r24
     a7e:	88 27       	eor	r24, r24
     a80:	77 fd       	sbrc	r23, 7
     a82:	80 95       	com	r24
     a84:	98 2f       	mov	r25, r24
	TempLong  *= SpeedK;
     a86:	f4 e0       	ldi	r31, 0x04	; 4
     a88:	35 95       	asr	r19
     a8a:	27 95       	ror	r18
     a8c:	fa 95       	dec	r31
     a8e:	e1 f7       	brne	.-8      	; 0xa88 <CbDealCtrl+0x378>
     a90:	39 01       	movw	r6, r18
     a92:	88 24       	eor	r8, r8
     a94:	77 fc       	sbrc	r7, 7
     a96:	80 94       	com	r8
     a98:	98 2c       	mov	r9, r8
     a9a:	a4 01       	movw	r20, r8
     a9c:	93 01       	movw	r18, r6
     a9e:	0e 94 ba 15 	call	0x2b74	; 0x2b74 <__mulsi3>
	TempLong  /= SPEEDK_DIV;
     aa2:	2a e4       	ldi	r18, 0x4A	; 74
     aa4:	31 e0       	ldi	r19, 0x01	; 1
     aa6:	40 e0       	ldi	r20, 0x00	; 0
     aa8:	50 e0       	ldi	r21, 0x00	; 0
     aaa:	0e 94 22 16 	call	0x2c44	; 0x2c44 <__divmodsi4>
     aae:	c9 01       	movw	r24, r18
     ab0:	da 01       	movw	r26, r20
     ab2:	5c 01       	movw	r10, r24
     ab4:	6d 01       	movw	r12, r26
     ab6:	9e e2       	ldi	r25, 0x2E	; 46
     ab8:	a9 16       	cp	r10, r25
     aba:	9f ef       	ldi	r25, 0xFF	; 255
     abc:	b9 06       	cpc	r11, r25
     abe:	9f ef       	ldi	r25, 0xFF	; 255
     ac0:	c9 06       	cpc	r12, r25
     ac2:	9f ef       	ldi	r25, 0xFF	; 255
     ac4:	d9 06       	cpc	r13, r25
     ac6:	44 f4       	brge	.+16     	; 0xad8 <CbDealCtrl+0x3c8>
     ac8:	ee e2       	ldi	r30, 0x2E	; 46
     aca:	ae 2e       	mov	r10, r30
     acc:	ef ef       	ldi	r30, 0xFF	; 255
     ace:	be 2e       	mov	r11, r30
     ad0:	ef ef       	ldi	r30, 0xFF	; 255
     ad2:	ce 2e       	mov	r12, r30
     ad4:	ef ef       	ldi	r30, 0xFF	; 255
     ad6:	de 2e       	mov	r13, r30
{
	int32_t TempLong;

	TempLong = Input_Adc_Z;

	TempLong = InputAdc_Y+InputAdc_X;
     ad8:	c8 01       	movw	r24, r16
     ada:	64 e0       	ldi	r22, 0x04	; 4
     adc:	70 e0       	ldi	r23, 0x00	; 0
     ade:	0e 94 ed 15 	call	0x2bda	; 0x2bda <__divmodhi4>
     ae2:	c6 0f       	add	r28, r22
     ae4:	d7 1f       	adc	r29, r23
     ae6:	be 01       	movw	r22, r28
     ae8:	88 27       	eor	r24, r24
     aea:	77 fd       	sbrc	r23, 7
     aec:	80 95       	com	r24
     aee:	98 2f       	mov	r25, r24
	TempLong  *= SpeedK;
     af0:	a4 01       	movw	r20, r8
     af2:	93 01       	movw	r18, r6
     af4:	0e 94 ba 15 	call	0x2b74	; 0x2b74 <__mulsi3>
	TempLong  /= SPEEDK_DIV;
     af8:	2a e4       	ldi	r18, 0x4A	; 74
     afa:	31 e0       	ldi	r19, 0x01	; 1
     afc:	40 e0       	ldi	r20, 0x00	; 0
     afe:	50 e0       	ldi	r21, 0x00	; 0
     b00:	0e 94 22 16 	call	0x2c44	; 0x2c44 <__divmodsi4>
     b04:	c9 01       	movw	r24, r18
     b06:	da 01       	movw	r26, r20
     b08:	7c 01       	movw	r14, r24
     b0a:	8d 01       	movw	r16, r26
     b0c:	ee e2       	ldi	r30, 0x2E	; 46
     b0e:	ee 16       	cp	r14, r30
     b10:	ef ef       	ldi	r30, 0xFF	; 255
     b12:	fe 06       	cpc	r15, r30
     b14:	ef ef       	ldi	r30, 0xFF	; 255
     b16:	0e 07       	cpc	r16, r30
     b18:	ef ef       	ldi	r30, 0xFF	; 255
     b1a:	1e 07       	cpc	r17, r30
     b1c:	44 f4       	brge	.+16     	; 0xb2e <CbDealCtrl+0x41e>
     b1e:	7e e2       	ldi	r23, 0x2E	; 46
     b20:	e7 2e       	mov	r14, r23
     b22:	7f ef       	ldi	r23, 0xFF	; 255
     b24:	f7 2e       	mov	r15, r23
     b26:	7f ef       	ldi	r23, 0xFF	; 255
     b28:	07 2f       	mov	r16, r23
     b2a:	7f ef       	ldi	r23, 0xFF	; 255
     b2c:	17 2f       	mov	r17, r23
		TempMoveZ = TempMoveZ-MOVE_Z_MID2;

	TempSpeedL = GetMoveSpeed( TempMoveY ,0-TempMoveX/4 ,  TempMoveZ,		TempMoveK);
	TempSpeedR = GetMoveSpeed( TempMoveY ,TempMoveX/4, 0-TempMoveZ,	TempMoveK);

	SetAccSpeed(TempSpeedL,&SetSpeedL);
     b2e:	d6 01       	movw	r26, r12
     b30:	c5 01       	movw	r24, r10
     b32:	83 3d       	cpi	r24, 0xD3	; 211
     b34:	91 05       	cpc	r25, r1
     b36:	a1 05       	cpc	r26, r1
     b38:	b1 05       	cpc	r27, r1
     b3a:	24 f0       	brlt	.+8      	; 0xb44 <CbDealCtrl+0x434>
     b3c:	82 ed       	ldi	r24, 0xD2	; 210
     b3e:	90 e0       	ldi	r25, 0x00	; 0
     b40:	a0 e0       	ldi	r26, 0x00	; 0
     b42:	b0 e0       	ldi	r27, 0x00	; 0
     b44:	60 e6       	ldi	r22, 0x60	; 96
     b46:	70 e2       	ldi	r23, 0x20	; 32
     b48:	0e 94 15 01 	call	0x22a	; 0x22a <SetAccSpeed>
	SetAccSpeed(TempSpeedR,&SetSpeedR);
     b4c:	d8 01       	movw	r26, r16
     b4e:	c7 01       	movw	r24, r14
     b50:	83 3d       	cpi	r24, 0xD3	; 211
     b52:	91 05       	cpc	r25, r1
     b54:	a1 05       	cpc	r26, r1
     b56:	b1 05       	cpc	r27, r1
     b58:	24 f0       	brlt	.+8      	; 0xb62 <CbDealCtrl+0x452>
     b5a:	82 ed       	ldi	r24, 0xD2	; 210
     b5c:	90 e0       	ldi	r25, 0x00	; 0
     b5e:	a0 e0       	ldi	r26, 0x00	; 0
     b60:	b0 e0       	ldi	r27, 0x00	; 0
     b62:	6e e5       	ldi	r22, 0x5E	; 94
     b64:	70 e2       	ldi	r23, 0x20	; 32
     b66:	0e 94 15 01 	call	0x22a	; 0x22a <SetAccSpeed>

	if(SetSpeedL>160)
     b6a:	80 91 60 20 	lds	r24, 0x2060
     b6e:	90 91 61 20 	lds	r25, 0x2061
     b72:	81 3a       	cpi	r24, 0xA1	; 161
     b74:	91 05       	cpc	r25, r1
     b76:	1c f0       	brlt	.+6      	; 0xb7e <CbDealCtrl+0x46e>
		SetSpeedL=160;
     b78:	80 ea       	ldi	r24, 0xA0	; 160
     b7a:	90 e0       	ldi	r25, 0x00	; 0
     b7c:	05 c0       	rjmp	.+10     	; 0xb88 <CbDealCtrl+0x478>
	else if(SetSpeedL<-160)
     b7e:	80 56       	subi	r24, 0x60	; 96
     b80:	9f 4f       	sbci	r25, 0xFF	; 255
     b82:	34 f4       	brge	.+12     	; 0xb90 <CbDealCtrl+0x480>
		SetSpeedL=-160;
     b84:	80 e6       	ldi	r24, 0x60	; 96
     b86:	9f ef       	ldi	r25, 0xFF	; 255
     b88:	80 93 60 20 	sts	0x2060, r24
     b8c:	90 93 61 20 	sts	0x2061, r25

	if(SetSpeedR>160)
     b90:	80 91 5e 20 	lds	r24, 0x205E
     b94:	90 91 5f 20 	lds	r25, 0x205F
     b98:	81 3a       	cpi	r24, 0xA1	; 161
     b9a:	91 05       	cpc	r25, r1
     b9c:	1c f0       	brlt	.+6      	; 0xba4 <CbDealCtrl+0x494>
		SetSpeedR=160;
     b9e:	80 ea       	ldi	r24, 0xA0	; 160
     ba0:	90 e0       	ldi	r25, 0x00	; 0
     ba2:	05 c0       	rjmp	.+10     	; 0xbae <CbDealCtrl+0x49e>
	else if(SetSpeedR<-160)
     ba4:	80 56       	subi	r24, 0x60	; 96
     ba6:	9f 4f       	sbci	r25, 0xFF	; 255
     ba8:	34 f4       	brge	.+12     	; 0xbb6 <CbDealCtrl+0x4a6>
		SetSpeedR=-160;
     baa:	80 e6       	ldi	r24, 0x60	; 96
     bac:	9f ef       	ldi	r25, 0xFF	; 255
     bae:	80 93 5e 20 	sts	0x205E, r24
     bb2:	90 93 5f 20 	sts	0x205F, r25

	TempSpeedL = SetSpeedL;
     bb6:	20 91 60 20 	lds	r18, 0x2060
     bba:	30 91 61 20 	lds	r19, 0x2061
	TempSpeedR = SetSpeedR;
     bbe:	40 91 5e 20 	lds	r20, 0x205E
     bc2:	50 91 5f 20 	lds	r21, 0x205F
//	TempSpeedL = adc_a_control.adb0>>4;
//	TempSpeedR = TempMoveY>>2;


	/**************设置左电机速*******************/
	if(TempSpeedL==0x00)
     bc6:	21 15       	cp	r18, r1
     bc8:	31 05       	cpc	r19, r1
     bca:	29 f4       	brne	.+10     	; 0xbd6 <CbDealCtrl+0x4c6>
	{
		CbCtrlData.LeftMoveCtrl 	= 0x00;
     bcc:	10 92 91 20 	sts	0x2091, r1
		CbCtrlData.LeftMoveSpeed	= 0x00;
     bd0:	10 92 93 20 	sts	0x2093, r1
     bd4:	10 c0       	rjmp	.+32     	; 0xbf6 <CbDealCtrl+0x4e6>
	}
	else if(TempSpeedL>0x00)
     bd6:	12 16       	cp	r1, r18
     bd8:	13 06       	cpc	r1, r19
     bda:	34 f4       	brge	.+12     	; 0xbe8 <CbDealCtrl+0x4d8>
	{
		CbCtrlData.LeftMoveCtrl 	= 0x01;
     bdc:	81 e0       	ldi	r24, 0x01	; 1
     bde:	80 93 91 20 	sts	0x2091, r24
		CbCtrlData.LeftMoveSpeed	= TempSpeedL;
     be2:	20 93 93 20 	sts	0x2093, r18
     be6:	07 c0       	rjmp	.+14     	; 0xbf6 <CbDealCtrl+0x4e6>
	}
	else
	{
		CbCtrlData.LeftMoveCtrl 	= 0x02;
     be8:	82 e0       	ldi	r24, 0x02	; 2
     bea:	80 93 91 20 	sts	0x2091, r24
		CbCtrlData.LeftMoveSpeed	= 0-TempSpeedL;
     bee:	82 2f       	mov	r24, r18
     bf0:	81 95       	neg	r24
     bf2:	80 93 93 20 	sts	0x2093, r24
	}
	/**************设置右电机速*******************/
	if(TempSpeedR==0x00)
     bf6:	41 15       	cp	r20, r1
     bf8:	51 05       	cpc	r21, r1
     bfa:	29 f4       	brne	.+10     	; 0xc06 <CbDealCtrl+0x4f6>
	{
		CbCtrlData.RightMoveCtrl 	= 0x00;
     bfc:	10 92 92 20 	sts	0x2092, r1
		CbCtrlData.RightMoveSpeed	= 0x00;
     c00:	10 92 94 20 	sts	0x2094, r1
     c04:	10 c0       	rjmp	.+32     	; 0xc26 <CbDealCtrl+0x516>
	}
	else if(TempSpeedR>0x00)
     c06:	14 16       	cp	r1, r20
     c08:	15 06       	cpc	r1, r21
     c0a:	34 f4       	brge	.+12     	; 0xc18 <CbDealCtrl+0x508>
	{
		CbCtrlData.RightMoveCtrl 	= 0x01;
     c0c:	81 e0       	ldi	r24, 0x01	; 1
     c0e:	80 93 92 20 	sts	0x2092, r24
		CbCtrlData.RightMoveSpeed	= TempSpeedR;
     c12:	40 93 94 20 	sts	0x2094, r20
     c16:	07 c0       	rjmp	.+14     	; 0xc26 <CbDealCtrl+0x516>
	}
	else
	{
		CbCtrlData.RightMoveCtrl 	= 0x02;
     c18:	82 e0       	ldi	r24, 0x02	; 2
     c1a:	80 93 92 20 	sts	0x2092, r24
		CbCtrlData.RightMoveSpeed	= 0-TempSpeedR;
     c1e:	84 2f       	mov	r24, r20
     c20:	81 95       	neg	r24
     c22:	80 93 94 20 	sts	0x2094, r24
	static int16_t TempZommVal;
	static uint8_t PreCamIn = 0x04;

	CbCtrlData.CamZoomCtrl = 0x00;

	TempCamIn = PORT_GetPortValue( &PORTD );
     c26:	90 91 68 06 	lds	r25, 0x0668
	TempCamIn >>= 0X05;
     c2a:	92 95       	swap	r25
     c2c:	96 95       	lsr	r25
     c2e:	97 70       	andi	r25, 0x07	; 7
     c30:	90 93 64 20 	sts	0x2064, r25

	switch(TempCamIn)
     c34:	94 30       	cpi	r25, 0x04	; 4
     c36:	91 f0       	breq	.+36     	; 0xc5c <CbDealCtrl+0x54c>
     c38:	95 30       	cpi	r25, 0x05	; 5
     c3a:	28 f4       	brcc	.+10     	; 0xc46 <CbDealCtrl+0x536>
     c3c:	92 30       	cpi	r25, 0x02	; 2
     c3e:	61 f0       	breq	.+24     	; 0xc58 <CbDealCtrl+0x548>
     c40:	93 30       	cpi	r25, 0x03	; 3
     c42:	e1 f4       	brne	.+56     	; 0xc7c <CbDealCtrl+0x56c>
     c44:	15 c0       	rjmp	.+42     	; 0xc70 <CbDealCtrl+0x560>
     c46:	95 30       	cpi	r25, 0x05	; 5
     c48:	79 f0       	breq	.+30     	; 0xc68 <CbDealCtrl+0x558>
     c4a:	96 30       	cpi	r25, 0x06	; 6
     c4c:	b9 f4       	brne	.+46     	; 0xc7c <CbDealCtrl+0x56c>
	{
	case 0x06:			//云台图像 1
		PreCamIn = 0x00;
     c4e:	10 92 27 20 	sts	0x2027, r1
		TempCamOut = 0X00;
     c52:	10 92 28 20 	sts	0x2028, r1
     c56:	12 c0       	rjmp	.+36     	; 0xc7c <CbDealCtrl+0x56c>
		break;
	case 0x02:			//前视图像 2
		PreCamIn = 0x01;
     c58:	81 e0       	ldi	r24, 0x01	; 1
     c5a:	07 c0       	rjmp	.+14     	; 0xc6a <CbDealCtrl+0x55a>
		TempCamOut = 0X01;
		break;
	case 0x04:			//手爪图像 3
		PreCamIn = 0x02;
     c5c:	82 e0       	ldi	r24, 0x02	; 2
     c5e:	80 93 27 20 	sts	0x2027, r24
		TempCamOut = 0X04;
     c62:	90 93 28 20 	sts	0x2028, r25
     c66:	0a c0       	rjmp	.+20     	; 0xc7c <CbDealCtrl+0x56c>
		break;
	case 0x05:			//后视图像 4
		PreCamIn = 0x03;
     c68:	83 e0       	ldi	r24, 0x03	; 3
     c6a:	80 93 27 20 	sts	0x2027, r24
     c6e:	04 c0       	rjmp	.+8      	; 0xc78 <CbDealCtrl+0x568>
		TempCamOut = 0X03;
		break;
	case 0x03:			//四画面图像 5
		PreCamIn = 0x04;
     c70:	84 e0       	ldi	r24, 0x04	; 4
     c72:	80 93 27 20 	sts	0x2027, r24
		TempCamOut = 0X02;
     c76:	82 e0       	ldi	r24, 0x02	; 2
     c78:	80 93 28 20 	sts	0x2028, r24
		break;

	}

	PORTE.OUTCLR  = 0X07;
     c7c:	e0 e8       	ldi	r30, 0x80	; 128
     c7e:	f6 e0       	ldi	r31, 0x06	; 6
     c80:	87 e0       	ldi	r24, 0x07	; 7
     c82:	86 83       	std	Z+6, r24	; 0x06
	PORTE.OUTSET  = TempCamOut;
     c84:	80 91 28 20 	lds	r24, 0x2028
     c88:	85 83       	std	Z+5, r24	; 0x05

	CbCtrlData.CamZoomCtrl |= (PreCamIn<<5);
     c8a:	40 91 27 20 	lds	r20, 0x2027
	/********************设置云台焦距*******************/
	TempZommVal = adc_a_control.ad1;
	TempZommVal >>= 0x07;
	TempZommVal &= 0x001F;

	TempZommVal = ((TempZommVal-0x02)*0x1F)/0X1D;
     c8e:	20 91 3b 20 	lds	r18, 0x203B
     c92:	30 91 3c 20 	lds	r19, 0x203C
     c96:	22 0f       	add	r18, r18
     c98:	23 2f       	mov	r18, r19
     c9a:	22 1f       	adc	r18, r18
     c9c:	33 0b       	sbc	r19, r19
     c9e:	2f 71       	andi	r18, 0x1F	; 31
     ca0:	30 70       	andi	r19, 0x00	; 0
     ca2:	c9 01       	movw	r24, r18
     ca4:	55 e0       	ldi	r21, 0x05	; 5
     ca6:	88 0f       	add	r24, r24
     ca8:	99 1f       	adc	r25, r25
     caa:	5a 95       	dec	r21
     cac:	e1 f7       	brne	.-8      	; 0xca6 <CbDealCtrl+0x596>
     cae:	82 1b       	sub	r24, r18
     cb0:	93 0b       	sbc	r25, r19
     cb2:	ce 97       	sbiw	r24, 0x3e	; 62
     cb4:	6d e1       	ldi	r22, 0x1D	; 29
     cb6:	70 e0       	ldi	r23, 0x00	; 0
     cb8:	0e 94 ed 15 	call	0x2bda	; 0x2bda <__divmodhi4>
     cbc:	60 93 62 20 	sts	0x2062, r22
     cc0:	70 93 63 20 	sts	0x2063, r23

	if(TempZommVal<0)
     cc4:	77 ff       	sbrs	r23, 7
     cc6:	04 c0       	rjmp	.+8      	; 0xcd0 <CbDealCtrl+0x5c0>
		TempZommVal = 0;
     cc8:	10 92 62 20 	sts	0x2062, r1
     ccc:	10 92 63 20 	sts	0x2063, r1
	else if(TempZommVal>0x1F)
		TempZommVal = 0X1F;

	CbCtrlData.CamZoomCtrl |= TempZommVal;
     cd0:	34 2f       	mov	r19, r20
     cd2:	32 95       	swap	r19
     cd4:	33 0f       	add	r19, r19
     cd6:	30 7e       	andi	r19, 0xE0	; 224
     cd8:	80 91 62 20 	lds	r24, 0x2062
     cdc:	38 2b       	or	r19, r24
     cde:	30 93 9c 20 	sts	0x209C, r19
//	PE3		IN_HD_LIGHT		云台灯光控制
//	PE4		IN_MV_LIGHT		行使灯光控制

	static uint8_t TempAim,TempCtrl,TempStateHand;

	TempAim = PORT_GetPortValue( &PORTC );
     ce2:	80 91 48 06 	lds	r24, 0x0648
	TempAim &= 0X01;
     ce6:	81 70       	andi	r24, 0x01	; 1
     ce8:	80 93 67 20 	sts	0x2067, r24

	TempCtrl = PORT_GetPortValue( &PORTE );
     cec:	90 91 88 06 	lds	r25, 0x0688
	TempCtrl >>= 0X03;
	TempCtrl  &= 0X03;
     cf0:	96 95       	lsr	r25
     cf2:	96 95       	lsr	r25
     cf4:	96 95       	lsr	r25
     cf6:	93 70       	andi	r25, 0x03	; 3
     cf8:	90 93 66 20 	sts	0x2066, r25

	TempStateHand   = (PORT_GetPortValue( &PORTE )>>5)&0x07;
     cfc:	20 91 88 06 	lds	r18, 0x0688
     d00:	22 95       	swap	r18
     d02:	26 95       	lsr	r18
     d04:	27 70       	andi	r18, 0x07	; 7
     d06:	20 93 65 20 	sts	0x2065, r18

	CbCtrlData.ExCtrl = 0x00;
	CbCtrlData.SwCtrl = 0x00;

	if(TempAim == 0X01)							//瞄准控制
     d0a:	81 30       	cpi	r24, 0x01	; 1
     d0c:	19 f4       	brne	.+6      	; 0xd14 <CbDealCtrl+0x604>
		CbCtrlData.SwCtrl &= ~(1<<4);
     d0e:	10 92 9b 20 	sts	0x209B, r1
     d12:	03 c0       	rjmp	.+6      	; 0xd1a <CbDealCtrl+0x60a>
	else
		CbCtrlData.SwCtrl |= (1<<4);
     d14:	80 e1       	ldi	r24, 0x10	; 16
     d16:	80 93 9b 20 	sts	0x209B, r24

	if( (TempStateHand&0x04) != 0x04)			//云台、手抓、前向灯光照明
     d1a:	22 fd       	sbrc	r18, 2
     d1c:	04 c0       	rjmp	.+8      	; 0xd26 <CbDealCtrl+0x616>
		CbCtrlData.SwCtrl |= (0x80|0x40|0x20);
     d1e:	80 91 9b 20 	lds	r24, 0x209B
     d22:	80 6e       	ori	r24, 0xE0	; 224
     d24:	03 c0       	rjmp	.+6      	; 0xd2c <CbDealCtrl+0x61c>
	else
		CbCtrlData.SwCtrl &= ~(0x80|0x40|0x20);
     d26:	80 91 9b 20 	lds	r24, 0x209B
     d2a:	8f 71       	andi	r24, 0x1F	; 31
     d2c:	80 93 9b 20 	sts	0x209B, r24

	if( TempCtrl == 0x01)			//行车摄像头俯
     d30:	91 30       	cpi	r25, 0x01	; 1
     d32:	11 f4       	brne	.+4      	; 0xd38 <CbDealCtrl+0x628>
		CbCtrlData.ExCtrl |= 0x80;
     d34:	80 e8       	ldi	r24, 0x80	; 128
     d36:	03 c0       	rjmp	.+6      	; 0xd3e <CbDealCtrl+0x62e>
	else if( TempCtrl == 0x02)		//行车摄像头仰
     d38:	92 30       	cpi	r25, 0x02	; 2
     d3a:	21 f4       	brne	.+8      	; 0xd44 <CbDealCtrl+0x634>
		CbCtrlData.ExCtrl |= 0x40;
     d3c:	80 e4       	ldi	r24, 0x40	; 64
     d3e:	80 93 9a 20 	sts	0x209A, r24
     d42:	02 c0       	rjmp	.+4      	; 0xd48 <CbDealCtrl+0x638>
	else
		CbCtrlData.ExCtrl |= 0x00;
     d44:	10 92 9a 20 	sts	0x209A, r1
//	PC4		IN_Fire			开火控制
	static uint8_t TempAimLock,TempFire;

	static uint16_t TempFireTick = 0;

	TempAimLock = (PORT_GetPortValue( &PORTC )>>1)&0x01;
     d48:	80 91 48 06 	lds	r24, 0x0648
     d4c:	86 95       	lsr	r24
     d4e:	81 70       	andi	r24, 0x01	; 1
     d50:	80 93 6b 20 	sts	0x206B, r24
	TempFire    = (PORT_GetPortValue( &PORTC )>>4)&0x01;
     d54:	90 91 48 06 	lds	r25, 0x0648
     d58:	92 95       	swap	r25
     d5a:	91 70       	andi	r25, 0x01	; 1
     d5c:	90 93 6a 20 	sts	0x206A, r25

	if(TempAimLock == 0x01)
     d60:	81 30       	cpi	r24, 0x01	; 1
     d62:	19 f4       	brne	.+6      	; 0xd6a <CbDealCtrl+0x65a>
	{
		CbCtrlData.FireState = FIRE_LOCK;
     d64:	10 92 9f 20 	sts	0x209F, r1
     d68:	04 c0       	rjmp	.+8      	; 0xd72 <CbDealCtrl+0x662>
		TempFireTick = 0;

	}
	else
	{
		if(TempFire == 0x01)
     d6a:	91 30       	cpi	r25, 0x01	; 1
     d6c:	39 f4       	brne	.+14     	; 0xd7c <CbDealCtrl+0x66c>
		{
			CbCtrlData.FireState = FIRE_PREPARE;
     d6e:	90 93 9f 20 	sts	0x209F, r25
			TempFireTick = 0;
     d72:	10 92 68 20 	sts	0x2068, r1
     d76:	10 92 69 20 	sts	0x2069, r1
     d7a:	10 c0       	rjmp	.+32     	; 0xd9c <CbDealCtrl+0x68c>
		}
		else
		{
			if(TempFireTick>FireDelayTime)
     d7c:	80 91 68 20 	lds	r24, 0x2068
     d80:	90 91 69 20 	lds	r25, 0x2069
     d84:	86 30       	cpi	r24, 0x06	; 6
     d86:	91 05       	cpc	r25, r1
     d88:	20 f0       	brcs	.+8      	; 0xd92 <CbDealCtrl+0x682>
				CbCtrlData.FireState = FIRE_START;
     d8a:	82 e0       	ldi	r24, 0x02	; 2
     d8c:	80 93 9f 20 	sts	0x209F, r24
     d90:	05 c0       	rjmp	.+10     	; 0xd9c <CbDealCtrl+0x68c>
			else
				TempFireTick++;
     d92:	01 96       	adiw	r24, 0x01	; 1
     d94:	80 93 68 20 	sts	0x2068, r24
     d98:	90 93 69 20 	sts	0x2069, r25

static void CbStatrOneFrameTxd(void)
{
	uint8_t count = 0;

	if(CbCtrlData.FireState == FIRE_LOCK)
     d9c:	80 91 9f 20 	lds	r24, 0x209F
     da0:	88 23       	and	r24, r24
     da2:	09 f0       	breq	.+2      	; 0xda6 <CbDealCtrl+0x696>
     da4:	ab c0       	rjmp	.+342    	; 0xefc <CbDealCtrl+0x7ec>
	{
		/********************  帧头 *********************/
		CbCtrlData.TxdDataBuf[0] = CB_TXD_START;
     da6:	85 ea       	ldi	r24, 0xA5	; 165
     da8:	80 93 74 20 	sts	0x2074, r24
//		if(CbCtrlData.DevID > CB_DEVID_MAX)
//			CbCtrlData.DevID = 1;
//		else
//			CbCtrlData.DevID++;

		CbCtrlData.DevID = 0x00;
     dac:	10 92 90 20 	sts	0x2090, r1

		CbCtrlData.TxdDataBuf[1] = CbCtrlData.DevID<<4;

		/****************  相关控制指令  ****************/

		CbCtrlData.TxdDataBuf[1] |= (CbCtrlData.LeftMoveCtrl<<2)|CbCtrlData.RightMoveCtrl;
     db0:	80 91 91 20 	lds	r24, 0x2091
     db4:	88 0f       	add	r24, r24
     db6:	88 0f       	add	r24, r24
     db8:	90 91 92 20 	lds	r25, 0x2092
     dbc:	89 2b       	or	r24, r25
     dbe:	80 93 75 20 	sts	0x2075, r24
		CbCtrlData.TxdDataBuf[2] = CbCtrlData.LeftMoveSpeed;
     dc2:	80 91 93 20 	lds	r24, 0x2093
     dc6:	80 93 76 20 	sts	0x2076, r24
		CbCtrlData.TxdDataBuf[3] = CbCtrlData.RightMoveSpeed;
     dca:	80 91 94 20 	lds	r24, 0x2094
     dce:	80 93 77 20 	sts	0x2077, r24

		CbCtrlData.TxdDataBuf[9] = 0x00;
		if(CbCtrlData.Arm18WorkMode)
     dd2:	90 91 af 20 	lds	r25, 0x20AF
     dd6:	99 23       	and	r25, r25
     dd8:	c1 f0       	breq	.+48     	; 0xe0a <CbDealCtrl+0x6fa>
		{
			CbCtrlData.TxdDataBuf[9] |= (1<<2);
     dda:	84 e0       	ldi	r24, 0x04	; 4
     ddc:	80 93 7d 20 	sts	0x207D, r24
			CbCtrlData.TxdDataBuf[4] &= 0XF0;
			CbCtrlData.TxdDataBuf[4] |= (CbCtrlData.Arm18WorkMode&0x07);	//机械臂0关节控制
     de0:	97 70       	andi	r25, 0x07	; 7
     de2:	80 91 78 20 	lds	r24, 0x2078
     de6:	80 7f       	andi	r24, 0xF0	; 240
     de8:	98 2b       	or	r25, r24
     dea:	90 93 78 20 	sts	0x2078, r25

			CbCtrlData.TxdDataBuf[5] = CbCtrlData.Arm34Ctrl;				//机械臂34关节控制
     dee:	80 91 96 20 	lds	r24, 0x2096
     df2:	80 93 79 20 	sts	0x2079, r24
			CbCtrlData.TxdDataBuf[6] &= 0X0F;
			CbCtrlData.TxdDataBuf[6] |= (CbCtrlData.Arm50Ctrl&0XF0);		//机械臂5关节控制
     df6:	90 91 97 20 	lds	r25, 0x2097
     dfa:	90 7f       	andi	r25, 0xF0	; 240
     dfc:	80 91 7a 20 	lds	r24, 0x207A
     e00:	8f 70       	andi	r24, 0x0F	; 15
     e02:	98 2b       	or	r25, r24
     e04:	90 93 7a 20 	sts	0x207A, r25
     e08:	1d c0       	rjmp	.+58     	; 0xe44 <CbDealCtrl+0x734>

		}
		else
		{
			CbCtrlData.TxdDataBuf[9] &= ~(1<<2);
			CbCtrlData.TxdDataBuf[4] = CbCtrlData.Arm12Ctrl;				//机械臂12关节控制
     e0a:	80 91 95 20 	lds	r24, 0x2095
     e0e:	80 93 78 20 	sts	0x2078, r24
			CbCtrlData.TxdDataBuf[5] = CbCtrlData.Arm34Ctrl;				//机械臂34关节控制
     e12:	80 91 96 20 	lds	r24, 0x2096
     e16:	80 93 79 20 	sts	0x2079, r24
			CbCtrlData.TxdDataBuf[6] &= 0X0F;
			CbCtrlData.TxdDataBuf[6] |= (CbCtrlData.Arm50Ctrl&0XF0);		//机械臂5关节控制
     e1a:	90 91 97 20 	lds	r25, 0x2097
     e1e:	90 7f       	andi	r25, 0xF0	; 240
     e20:	80 91 7a 20 	lds	r24, 0x207A
     e24:	8f 70       	andi	r24, 0x0F	; 15
     e26:	98 2b       	or	r25, r24
     e28:	90 93 7a 20 	sts	0x207A, r25

			if(CbCtrlData.YtWorkMode)
     e2c:	90 91 b0 20 	lds	r25, 0x20B0
     e30:	99 23       	and	r25, r25
     e32:	31 f0       	breq	.+12     	; 0xe40 <CbDealCtrl+0x730>
			{
				CbCtrlData.TxdDataBuf[9] |= (1<<1);
     e34:	82 e0       	ldi	r24, 0x02	; 2
     e36:	80 93 7d 20 	sts	0x207D, r24
				CbCtrlData.TxdDataBuf[7] = CbCtrlData.YtWorkMode;
     e3a:	90 93 7b 20 	sts	0x207B, r25
     e3e:	06 c0       	rjmp	.+12     	; 0xe4c <CbDealCtrl+0x73c>
			}
			else
			{
				CbCtrlData.TxdDataBuf[9] &= ~(1<<1);
     e40:	90 93 7d 20 	sts	0x207D, r25
				CbCtrlData.TxdDataBuf[7] = CbCtrlData.Arm78Ctrl;				//机械臂78关节控制
     e44:	80 91 98 20 	lds	r24, 0x2098
     e48:	80 93 7b 20 	sts	0x207B, r24
			}

		}

		if(CbCtrlData.Arm0WorkMode)
     e4c:	90 91 ae 20 	lds	r25, 0x20AE
     e50:	99 23       	and	r25, r25
     e52:	69 f0       	breq	.+26     	; 0xe6e <CbDealCtrl+0x75e>
		{
			CbCtrlData.TxdDataBuf[9] |= (1<<3);
     e54:	80 91 7d 20 	lds	r24, 0x207D
     e58:	88 60       	ori	r24, 0x08	; 8
     e5a:	80 93 7d 20 	sts	0x207D, r24
			CbCtrlData.TxdDataBuf[6] &= 0XF0;
     e5e:	80 91 7a 20 	lds	r24, 0x207A
     e62:	80 7f       	andi	r24, 0xF0	; 240
			CbCtrlData.TxdDataBuf[6] |= (CbCtrlData.Arm0WorkMode&0x07);			//机械臂0关节控制
     e64:	97 70       	andi	r25, 0x07	; 7
     e66:	98 2b       	or	r25, r24
     e68:	90 93 7a 20 	sts	0x207A, r25
     e6c:	0e c0       	rjmp	.+28     	; 0xe8a <CbDealCtrl+0x77a>
		}
		else
		{
			CbCtrlData.TxdDataBuf[9] &= ~(1<<3);
     e6e:	80 91 7d 20 	lds	r24, 0x207D
     e72:	87 7f       	andi	r24, 0xF7	; 247
     e74:	80 93 7d 20 	sts	0x207D, r24
			CbCtrlData.TxdDataBuf[6] &= 0XF0;
     e78:	90 91 7a 20 	lds	r25, 0x207A
     e7c:	90 7f       	andi	r25, 0xF0	; 240
			CbCtrlData.TxdDataBuf[6] |= (CbCtrlData.Arm50Ctrl&0x0F);			//机械臂0关节控制
     e7e:	80 91 97 20 	lds	r24, 0x2097
     e82:	8f 70       	andi	r24, 0x0F	; 15
     e84:	89 2b       	or	r24, r25
     e86:	80 93 7a 20 	sts	0x207A, r24
		}



		CbCtrlData.TxdDataBuf[8] = CbCtrlData.Arm6Ctrl;					//机械臂6关节控制
     e8a:	80 91 99 20 	lds	r24, 0x2099
     e8e:	80 93 7c 20 	sts	0x207C, r24

		CbCtrlData.TxdDataBuf[9] &= 0X0F;
		CbCtrlData.TxdDataBuf[9] |= (CbCtrlData.ExCtrl&0xF0);					//其它控制信号
     e92:	90 91 9a 20 	lds	r25, 0x209A
     e96:	90 7f       	andi	r25, 0xF0	; 240
     e98:	80 91 7d 20 	lds	r24, 0x207D
     e9c:	8f 70       	andi	r24, 0x0F	; 15
     e9e:	98 2b       	or	r25, r24
     ea0:	90 93 7d 20 	sts	0x207D, r25
		CbCtrlData.TxdDataBuf[10] = CbCtrlData.SwCtrl;					//开关量控制信号
     ea4:	80 91 9b 20 	lds	r24, 0x209B
     ea8:	80 93 7e 20 	sts	0x207E, r24
		CbCtrlData.TxdDataBuf[11] = CbCtrlData.CamZoomCtrl;				//图像及焦距设置
     eac:	30 93 7f 20 	sts	0x207F, r19

		if(CbCtrlData.TestMode == TEST_NO_LIMIT)
     eb0:	80 91 b1 20 	lds	r24, 0x20B1
     eb4:	81 30       	cpi	r24, 0x01	; 1
     eb6:	71 f4       	brne	.+28     	; 0xed4 <CbDealCtrl+0x7c4>
		{
			CbCtrlData.TxdDataBuf[1] = 0x30;
     eb8:	80 e3       	ldi	r24, 0x30	; 48
     eba:	80 93 75 20 	sts	0x2075, r24
			CbCtrlData.TxdDataBuf[2] = 0x11;
     ebe:	81 e1       	ldi	r24, 0x11	; 17
     ec0:	80 93 76 20 	sts	0x2076, r24
			CbCtrlData.TxdDataBuf[3] = 0x22;
     ec4:	82 e2       	ldi	r24, 0x22	; 34
     ec6:	80 93 77 20 	sts	0x2077, r24
			CbCtrlData.TxdDataBuf[4] = 0x33;
     eca:	83 e3       	ldi	r24, 0x33	; 51
     ecc:	80 93 78 20 	sts	0x2078, r24
			CbCtrlData.TxdDataBuf[5] = 0x44;
     ed0:	84 e4       	ldi	r24, 0x44	; 68
     ed2:	0f c0       	rjmp	.+30     	; 0xef2 <CbDealCtrl+0x7e2>
			CbCtrlData.TestMode = TEST_NC;

		}
		else if(CbCtrlData.TestMode == TEST_SET_ZERO)
     ed4:	82 30       	cpi	r24, 0x02	; 2
     ed6:	a9 f5       	brne	.+106    	; 0xf42 <CbDealCtrl+0x832>
		{
			CbCtrlData.TxdDataBuf[1] = 0x30;
     ed8:	80 e3       	ldi	r24, 0x30	; 48
     eda:	80 93 75 20 	sts	0x2075, r24
			CbCtrlData.TxdDataBuf[2] = 0x55;
     ede:	85 e5       	ldi	r24, 0x55	; 85
     ee0:	80 93 76 20 	sts	0x2076, r24
			CbCtrlData.TxdDataBuf[3] = 0x66;
     ee4:	86 e6       	ldi	r24, 0x66	; 102
     ee6:	80 93 77 20 	sts	0x2077, r24
			CbCtrlData.TxdDataBuf[4] = 0x77;
     eea:	87 e7       	ldi	r24, 0x77	; 119
     eec:	80 93 78 20 	sts	0x2078, r24
			CbCtrlData.TxdDataBuf[5] = 0x88;
     ef0:	88 e8       	ldi	r24, 0x88	; 136
     ef2:	80 93 79 20 	sts	0x2079, r24
			CbCtrlData.TestMode = TEST_NC;
     ef6:	10 92 b1 20 	sts	0x20B1, r1
     efa:	23 c0       	rjmp	.+70     	; 0xf42 <CbDealCtrl+0x832>
		}


	}
	else if(CbCtrlData.FireState == FIRE_PREPARE)
     efc:	81 30       	cpi	r24, 0x01	; 1
     efe:	81 f4       	brne	.+32     	; 0xf20 <CbDealCtrl+0x810>
     f00:	20 e0       	ldi	r18, 0x00	; 0
     f02:	30 e0       	ldi	r19, 0x00	; 0
	{
		for(count=0;count<CB_TXD_LEN-1;count++)
			CbCtrlData.TxdDataBuf[count] = CB_PREPARE_DATA[count];
     f04:	f9 01       	movw	r30, r18
     f06:	ec 58       	subi	r30, 0x8C	; 140
     f08:	ff 4d       	sbci	r31, 0xDF	; 223
     f0a:	d9 01       	movw	r26, r18
     f0c:	a0 50       	subi	r26, 0x00	; 0
     f0e:	b0 4e       	sbci	r27, 0xE0	; 224
     f10:	8c 91       	ld	r24, X
     f12:	80 83       	st	Z, r24
     f14:	2f 5f       	subi	r18, 0xFF	; 255
     f16:	3f 4f       	sbci	r19, 0xFF	; 255


	}
	else if(CbCtrlData.FireState == FIRE_PREPARE)
	{
		for(count=0;count<CB_TXD_LEN-1;count++)
     f18:	2c 30       	cpi	r18, 0x0C	; 12
     f1a:	31 05       	cpc	r19, r1
     f1c:	99 f7       	brne	.-26     	; 0xf04 <CbDealCtrl+0x7f4>
     f1e:	11 c0       	rjmp	.+34     	; 0xf42 <CbDealCtrl+0x832>
			CbCtrlData.TxdDataBuf[count] = CB_PREPARE_DATA[count];
	}
	else if(CbCtrlData.FireState == FIRE_START)
     f20:	82 30       	cpi	r24, 0x02	; 2
     f22:	79 f4       	brne	.+30     	; 0xf42 <CbDealCtrl+0x832>
     f24:	20 e0       	ldi	r18, 0x00	; 0
     f26:	30 e0       	ldi	r19, 0x00	; 0
	{
		for(count=0;count<CB_TXD_LEN-1;count++)
			CbCtrlData.TxdDataBuf[count] = CB_FIRE_DATA[count];
     f28:	f9 01       	movw	r30, r18
     f2a:	ec 58       	subi	r30, 0x8C	; 140
     f2c:	ff 4d       	sbci	r31, 0xDF	; 223
     f2e:	d9 01       	movw	r26, r18
     f30:	a3 5f       	subi	r26, 0xF3	; 243
     f32:	bf 4d       	sbci	r27, 0xDF	; 223
     f34:	8c 91       	ld	r24, X
     f36:	80 83       	st	Z, r24
     f38:	2f 5f       	subi	r18, 0xFF	; 255
     f3a:	3f 4f       	sbci	r19, 0xFF	; 255
		for(count=0;count<CB_TXD_LEN-1;count++)
			CbCtrlData.TxdDataBuf[count] = CB_PREPARE_DATA[count];
	}
	else if(CbCtrlData.FireState == FIRE_START)
	{
		for(count=0;count<CB_TXD_LEN-1;count++)
     f3c:	2c 30       	cpi	r18, 0x0C	; 12
     f3e:	31 05       	cpc	r19, r1
     f40:	99 f7       	brne	.-26     	; 0xf28 <CbDealCtrl+0x818>
			CbCtrlData.TxdDataBuf[count] = CB_FIRE_DATA[count];
	}


	/******************  求检验和   ******************/
	CbCtrlData.TxdDataBuf[CB_TXD_LEN-1] = 0x00;
     f42:	10 92 80 20 	sts	0x2080, r1
     f46:	c4 e7       	ldi	r28, 0x74	; 116
     f48:	d0 e2       	ldi	r29, 0x20	; 32
     f4a:	8e 01       	movw	r16, r28
	for(count=0;count<CB_TXD_LEN-1;count++)
		CbCtrlData.TxdDataBuf[CB_TXD_LEN-1] += CbCtrlData.TxdDataBuf[count];
     f4c:	f8 01       	movw	r30, r16
     f4e:	81 91       	ld	r24, Z+
     f50:	8f 01       	movw	r16, r30
     f52:	90 91 80 20 	lds	r25, 0x2080
     f56:	89 0f       	add	r24, r25
     f58:	80 93 80 20 	sts	0x2080, r24
	}


	/******************  求检验和   ******************/
	CbCtrlData.TxdDataBuf[CB_TXD_LEN-1] = 0x00;
	for(count=0;count<CB_TXD_LEN-1;count++)
     f5c:	f0 e2       	ldi	r31, 0x20	; 32
     f5e:	00 38       	cpi	r16, 0x80	; 128
     f60:	1f 07       	cpc	r17, r31
     f62:	a1 f7       	brne	.-24     	; 0xf4c <CbDealCtrl+0x83c>

		CbIoToFireCtlrData();			//	OK

		CbStatrOneFrameTxd();

		CbSendDataToLcd();
     f64:	0e 94 65 01 	call	0x2ca	; 0x2ca <CbSendDataToLcd>

		FrameTimeTick = 0;
     f68:	10 92 59 20 	sts	0x2059, r1
     f6c:	10 92 5a 20 	sts	0x205A, r1
		TimeTick = 0;
     f70:	10 92 5b 20 	sts	0x205B, r1
     f74:	10 92 5c 20 	sts	0x205C, r1

		if(CbCtrlData.ComSwState == COM_WIRELESS_EN)
     f78:	f8 01       	movw	r30, r16
     f7a:	86 8d       	ldd	r24, Z+30	; 0x1e
     f7c:	81 30       	cpi	r24, 0x01	; 1
     f7e:	69 f4       	brne	.+26     	; 0xf9a <CbDealCtrl+0x88a>
		{
			uint8_t Index=0x00;
			for(Index=0;Index<CB_TXD_LEN;Index++)
				while (!USART_TXBuffer_PutByte(&USART_data_C0,CbCtrlData.TxdDataBuf[Index]));
     f80:	8c ea       	ldi	r24, 0xAC	; 172
     f82:	91 e2       	ldi	r25, 0x21	; 33
     f84:	68 81       	ld	r22, Y
     f86:	0e 94 2d 0d 	call	0x1a5a	; 0x1a5a <USART_TXBuffer_PutByte>
     f8a:	88 23       	and	r24, r24
     f8c:	c9 f3       	breq	.-14     	; 0xf80 <CbDealCtrl+0x870>
     f8e:	21 96       	adiw	r28, 0x01	; 1
		TimeTick = 0;

		if(CbCtrlData.ComSwState == COM_WIRELESS_EN)
		{
			uint8_t Index=0x00;
			for(Index=0;Index<CB_TXD_LEN;Index++)
     f90:	f0 e2       	ldi	r31, 0x20	; 32
     f92:	c1 38       	cpi	r28, 0x81	; 129
     f94:	df 07       	cpc	r29, r31
     f96:	a1 f7       	brne	.-24     	; 0xf80 <CbDealCtrl+0x870>
     f98:	0e c0       	rjmp	.+28     	; 0xfb6 <CbDealCtrl+0x8a6>
				while (!USART_TXBuffer_PutByte(&USART_data_C0,CbCtrlData.TxdDataBuf[Index]));
		}
		else if(CbCtrlData.ComSwState == COM_WIRE_EN)
     f9a:	82 30       	cpi	r24, 0x02	; 2
     f9c:	61 f4       	brne	.+24     	; 0xfb6 <CbDealCtrl+0x8a6>
		{
			uint8_t Index=0x00;
			for(Index=0;Index<CB_TXD_LEN;Index++)
				while (!USART_TXBuffer_PutByte(&USART_data_D0,CbCtrlData.TxdDataBuf[Index]));
     f9e:	81 e8       	ldi	r24, 0x81	; 129
     fa0:	92 e2       	ldi	r25, 0x22	; 34
     fa2:	68 81       	ld	r22, Y
     fa4:	0e 94 2d 0d 	call	0x1a5a	; 0x1a5a <USART_TXBuffer_PutByte>
     fa8:	88 23       	and	r24, r24
     faa:	c9 f3       	breq	.-14     	; 0xf9e <CbDealCtrl+0x88e>
     fac:	21 96       	adiw	r28, 0x01	; 1
				while (!USART_TXBuffer_PutByte(&USART_data_C0,CbCtrlData.TxdDataBuf[Index]));
		}
		else if(CbCtrlData.ComSwState == COM_WIRE_EN)
		{
			uint8_t Index=0x00;
			for(Index=0;Index<CB_TXD_LEN;Index++)
     fae:	20 e2       	ldi	r18, 0x20	; 32
     fb0:	c1 38       	cpi	r28, 0x81	; 129
     fb2:	d2 07       	cpc	r29, r18
     fb4:	a1 f7       	brne	.-24     	; 0xf9e <CbDealCtrl+0x88e>
		//PORTC.OUTTGL  = PIN1_bm| PIN4_bm;	//////////////////////////////////

		//USART_TXBuffer_PutByte(&USART_data_C0,adc_a_control.adb2 >> 4);
	}

	TimeTick++;
     fb6:	80 91 5b 20 	lds	r24, 0x205B
     fba:	90 91 5c 20 	lds	r25, 0x205C
     fbe:	01 96       	adiw	r24, 0x01	; 1
     fc0:	80 93 5b 20 	sts	0x205B, r24
     fc4:	90 93 5c 20 	sts	0x205C, r25

}
     fc8:	df 91       	pop	r29
     fca:	cf 91       	pop	r28
     fcc:	1f 91       	pop	r17
     fce:	0f 91       	pop	r16
     fd0:	ff 90       	pop	r15
     fd2:	ef 90       	pop	r14
     fd4:	df 90       	pop	r13
     fd6:	cf 90       	pop	r12
     fd8:	bf 90       	pop	r11
     fda:	af 90       	pop	r10
     fdc:	9f 90       	pop	r9
     fde:	8f 90       	pop	r8
     fe0:	7f 90       	pop	r7
     fe2:	6f 90       	pop	r6
     fe4:	08 95       	ret

00000fe6 <CbCtrlInit>:
			0XDD,	0XEE,	0XFF,	0X11,	0X22, 0X33,0X44
};

static void CbCtrlInitDevicesPre(void)
{
	cli();
     fe6:	f8 94       	cli

	InitClkSys();
     fe8:	0e 94 7e 10 	call	0x20fc	; 0x20fc <InitClkSys>

	/* 用于LCD屏幕控制 CB_LCD */
	InitUsartC1(19200);
     fec:	60 e0       	ldi	r22, 0x00	; 0
     fee:	7b e4       	ldi	r23, 0x4B	; 75
     ff0:	80 e0       	ldi	r24, 0x00	; 0
     ff2:	90 e0       	ldi	r25, 0x00	; 0
     ff4:	0e 94 30 15 	call	0x2a60	; 0x2a60 <InitUsartC1>

	/* 用于无线控制，CB_RC 	*/
	InitUsartC0(19200);
     ff8:	60 e0       	ldi	r22, 0x00	; 0
     ffa:	7b e4       	ldi	r23, 0x4B	; 75
     ffc:	80 e0       	ldi	r24, 0x00	; 0
     ffe:	90 e0       	ldi	r25, 0x00	; 0
    1000:	0e 94 75 15 	call	0x2aea	; 0x2aea <InitUsartC0>

	/* 用于有线控制, CB_RC1 	*/
	InitUsartD0(19200);
    1004:	60 e0       	ldi	r22, 0x00	; 0
    1006:	7b e4       	ldi	r23, 0x4B	; 75
    1008:	80 e0       	ldi	r24, 0x00	; 0
    100a:	90 e0       	ldi	r25, 0x00	; 0
    100c:	0e 94 e8 14 	call	0x29d0	; 0x29d0 <InitUsartD0>


	/* 用于串行数据接收控制 */
	InitTCD0();
    1010:	0e 94 02 11 	call	0x2204	; 0x2204 <InitTCD0>

	/* 用于串行数据发送控制 */
	InitTCD1();
    1014:	0e 94 f6 10 	call	0x21ec	; 0x21ec <InitTCD1>


	/* Enable all interrupt levels. */
	PMIC_SetVectorLocationToApplication();
    1018:	0e 94 bb 0c 	call	0x1976	; 0x1976 <PMIC_SetVectorLocationToApplication>
	PMIC_EnableLowLevel();
    101c:	e0 ea       	ldi	r30, 0xA0	; 160
    101e:	f0 e0       	ldi	r31, 0x00	; 0
    1020:	80 91 a2 00 	lds	r24, 0x00A2
    1024:	81 60       	ori	r24, 0x01	; 1
    1026:	82 83       	std	Z+2, r24	; 0x02
	PMIC_EnableMediumLevel();
    1028:	80 91 a2 00 	lds	r24, 0x00A2
    102c:	82 60       	ori	r24, 0x02	; 2
    102e:	82 83       	std	Z+2, r24	; 0x02
	PMIC_EnableHighLevel();
    1030:	80 91 a2 00 	lds	r24, 0x00A2
    1034:	84 60       	ori	r24, 0x04	; 4
    1036:	82 83       	std	Z+2, r24	; 0x02

	/**********IO输入口设置操作**************/
	//	PC0  	IN_Aim   		瞄准控制
	//	PC1		IN_Aim_Lock		开火钥匙
	//	PC4		IN_Fire			开火控制
	PORTC.DIRCLR  = PIN0_bm|PIN1_bm|PIN4_bm|PIN5_bm;
    1038:	e0 e4       	ldi	r30, 0x40	; 64
    103a:	f6 e0       	ldi	r31, 0x06	; 6
    103c:	83 e3       	ldi	r24, 0x33	; 51
    103e:	82 83       	std	Z+2, r24	; 0x02
	PORTC.OUTSET  = PIN0_bm|PIN1_bm|PIN4_bm|PIN5_bm;
    1040:	85 83       	std	Z+5, r24	; 0x05

	PORTD.DIRCLR  = PIN5_bm|PIN6_bm|PIN7_bm;
    1042:	20 e6       	ldi	r18, 0x60	; 96
    1044:	36 e0       	ldi	r19, 0x06	; 6
    1046:	80 ee       	ldi	r24, 0xE0	; 224
    1048:	f9 01       	movw	r30, r18
    104a:	82 83       	std	Z+2, r24	; 0x02
	PORTD.OUTSET  = PIN5_bm|PIN6_bm|PIN7_bm;
    104c:	85 83       	std	Z+5, r24	; 0x05

	PORTE.DIRCLR  = PIN3_bm|PIN4_bm|PIN5_bm|PIN6_bm|PIN7_bm;
    104e:	a0 e8       	ldi	r26, 0x80	; 128
    1050:	b6 e0       	ldi	r27, 0x06	; 6
    1052:	88 ef       	ldi	r24, 0xF8	; 248
    1054:	12 96       	adiw	r26, 0x02	; 2
    1056:	8c 93       	st	X, r24
    1058:	12 97       	sbiw	r26, 0x02	; 2
	PORTE.OUTSET  = PIN3_bm|PIN4_bm|PIN5_bm|PIN6_bm|PIN7_bm;
    105a:	15 96       	adiw	r26, 0x05	; 5
    105c:	8c 93       	st	X, r24
    105e:	15 97       	sbiw	r26, 0x05	; 5

	PORTF.DIRCLR  = 0XFF;
    1060:	e0 ea       	ldi	r30, 0xA0	; 160
    1062:	f6 e0       	ldi	r31, 0x06	; 6
    1064:	8f ef       	ldi	r24, 0xFF	; 255
    1066:	82 83       	std	Z+2, r24	; 0x02
	PORTF.OUTSET  = 0XFF;
    1068:	85 83       	std	Z+5, r24	; 0x05


	/**********IO输出口设置操作**************/

	PORTD.DIRSET  = PIN0_bm;
    106a:	81 e0       	ldi	r24, 0x01	; 1
    106c:	f9 01       	movw	r30, r18
    106e:	81 83       	std	Z+1, r24	; 0x01
	PORTD.OUTCLR  = PIN0_bm;
    1070:	86 83       	std	Z+6, r24	; 0x06

	PORTE.DIRSET  = PIN0_bm|PIN1_bm|PIN2_bm;
    1072:	87 e0       	ldi	r24, 0x07	; 7
    1074:	11 96       	adiw	r26, 0x01	; 1
    1076:	8c 93       	st	X, r24
    1078:	11 97       	sbiw	r26, 0x01	; 1
	PORTE.OUTSET  = PIN0_bm|PIN1_bm|PIN2_bm;
    107a:	15 96       	adiw	r26, 0x05	; 5
    107c:	8c 93       	st	X, r24


	/* 设备总线的RS485发送端控制，设置输出，并使能无效 */
	PORTD.DIRSET  = PIN1_bm;
    107e:	82 e0       	ldi	r24, 0x02	; 2
    1080:	81 83       	std	Z+1, r24	; 0x01
	PORTD.OUTCLR  = PIN1_bm;
    1082:	86 83       	std	Z+6, r24	; 0x06


	/* Enable global interrupts. */
	sei();
    1084:	78 94       	sei

static void CbCtrlInit(void)
{
	CbCtrlInitDevicesPre();

	InitAdcA();
    1086:	0e 94 76 0f 	call	0x1eec	; 0x1eec <InitAdcA>
	InitAdcB();
    108a:	0e 94 fe 0e 	call	0x1dfc	; 0x1dfc <InitAdcB>
    108e:	80 e1       	ldi	r24, 0x10	; 16
    1090:	97 e2       	ldi	r25, 0x27	; 39
    milliseconds can be achieved.
 */
void
_delay_loop_2(uint16_t __count)
{
	__asm__ volatile (
    1092:	29 e1       	ldi	r18, 0x19	; 25
    1094:	30 e0       	ldi	r19, 0x00	; 0
    1096:	f9 01       	movw	r30, r18
    1098:	31 97       	sbiw	r30, 0x01	; 1
    109a:	f1 f7       	brne	.-4      	; 0x1098 <CbCtrlInit+0xb2>
		__ticks = (uint16_t) (__ms * 10.0);
		while(__ticks)
		{
			// wait 1/10 ms
			_delay_loop_2(((F_CPU) / 4e3) / 10);
			__ticks --;
    109c:	01 97       	sbiw	r24, 0x01	; 1
		__ticks = 1;
	else if (__tmp > 65535)
	{
		//	__ticks = requested delay in 1/10 ms
		__ticks = (uint16_t) (__ms * 10.0);
		while(__ticks)
    109e:	d9 f7       	brne	.-10     	; 0x1096 <CbCtrlInit+0xb0>

	_delay_ms(1000);

	TC1_ConfigClockSource( &TCD1, TC_CLKSEL_DIV64_gc );
    10a0:	80 e4       	ldi	r24, 0x40	; 64
    10a2:	99 e0       	ldi	r25, 0x09	; 9
    10a4:	65 e0       	ldi	r22, 0x05	; 5
    10a6:	0e 94 80 09 	call	0x1300	; 0x1300 <TC1_ConfigClockSource>
	TC0_ConfigClockSource( &TCD0, TC_CLKSEL_DIV64_gc );
    10aa:	80 e0       	ldi	r24, 0x00	; 0
    10ac:	99 e0       	ldi	r25, 0x09	; 9
    10ae:	65 e0       	ldi	r22, 0x05	; 5
    10b0:	0e 94 7a 09 	call	0x12f4	; 0x12f4 <TC0_ConfigClockSource>

}
    10b4:	08 95       	ret

000010b6 <CbDisGetSpeed>:

inline static int8_t CbDisGetSpeed(uint8_t Dir,uint8_t Speed)
{
	int16_t TempSpeed;
	/**************设置电机速*******************/
	if(Dir==0x01)
    10b6:	81 30       	cpi	r24, 0x01	; 1
    10b8:	29 f4       	brne	.+10     	; 0x10c4 <CbDisGetSpeed+0xe>
	{
		TempSpeed = Speed;
    10ba:	86 2f       	mov	r24, r22
    10bc:	90 e0       	ldi	r25, 0x00	; 0
		TempSpeed /= 2;
    10be:	95 95       	asr	r25
    10c0:	87 95       	ror	r24
    10c2:	08 95       	ret
	}
	else if(Dir==0x02)
    10c4:	82 30       	cpi	r24, 0x02	; 2
    10c6:	19 f0       	breq	.+6      	; 0x10ce <CbDisGetSpeed+0x18>
    10c8:	80 e0       	ldi	r24, 0x00	; 0
    10ca:	90 e0       	ldi	r25, 0x00	; 0
    10cc:	08 95       	ret
	{
		TempSpeed = 0-Speed;
    10ce:	86 2f       	mov	r24, r22
    10d0:	90 e0       	ldi	r25, 0x00	; 0
		TempSpeed /= 2;
    10d2:	90 95       	com	r25
    10d4:	81 95       	neg	r24
    10d6:	9f 4f       	sbci	r25, 0xFF	; 255
    10d8:	62 e0       	ldi	r22, 0x02	; 2
    10da:	70 e0       	ldi	r23, 0x00	; 0
    10dc:	0e 94 ed 15 	call	0x2bda	; 0x2bda <__divmodhi4>
    10e0:	cb 01       	movw	r24, r22
	{
		TempSpeed = 0;
	}
	return TempSpeed;

}
    10e2:	08 95       	ret

000010e4 <XbotCbDealRxDisCtrl>:


}

static void XbotCbDealRxDisCtrl(USART_data_t * p_usart_data,CBDIS_CTRL_DATA_STRUCT* pDa)
{
    10e4:	bf 92       	push	r11
    10e6:	cf 92       	push	r12
    10e8:	df 92       	push	r13
    10ea:	ef 92       	push	r14
    10ec:	ff 92       	push	r15
    10ee:	0f 93       	push	r16
    10f0:	1f 93       	push	r17
    10f2:	cf 93       	push	r28
    10f4:	df 93       	push	r29
    10f6:	8c 01       	movw	r16, r24
    10f8:	eb 01       	movw	r28, r22
			DataIndex++;
		}
		else if (DataIndex == CBDIS_RXD_LEN-1)
		{
			pDa->RxdDataBuf[DataIndex] = TempData;
			DataIndex++;
    10fa:	5d e0       	ldi	r21, 0x0D	; 13
    10fc:	b5 2e       	mov	r11, r21

			/*******    求校验和       *******/
			pDa->CheckSum = 0;

			for(TempCount=0;TempCount<CBDIS_RXD_LEN-1;TempCount++)
    10fe:	4c e0       	ldi	r20, 0x0C	; 12
    1100:	e4 2e       	mov	r14, r20
    1102:	f1 2c       	mov	r15, r1
    1104:	e6 0e       	add	r14, r22
    1106:	f7 1e       	adc	r15, r23
	}

	if(pDa->RxdDataBuf[3] == 0x8A)
		pCtrlData->TestMode = TEST_NO_LIMIT;
	else if(pDa->RxdDataBuf[3] == 0x8B)
		pCtrlData->TestMode = TEST_SET_ZERO;
    1108:	32 e0       	ldi	r19, 0x02	; 2
    110a:	c3 2e       	mov	r12, r19
		pCtrlData->YtWorkMode 		= (pDa->RxdDataBuf[2]>>0)&0X03;;		//云台工作模式

	}

	if(pDa->RxdDataBuf[3] == 0x8A)
		pCtrlData->TestMode = TEST_NO_LIMIT;
    110c:	dd 24       	eor	r13, r13
    110e:	d3 94       	inc	r13
    1110:	4c c0       	rjmp	.+152    	; 0x11aa <XbotCbDealRxDisCtrl+0xc6>

	static uint8_t DataIndex = 0;

	while (USART_RXBufferData_Available(p_usart_data))
	{
		TempData = USART_RXBuffer_GetByte(p_usart_data);
    1112:	c8 01       	movw	r24, r16
    1114:	0e 94 5e 0d 	call	0x1abc	; 0x1abc <USART_RXBuffer_GetByte>

		if (DataIndex == 0X00)
    1118:	90 91 cf 20 	lds	r25, 0x20CF
    111c:	99 23       	and	r25, r25
    111e:	39 f4       	brne	.+14     	; 0x112e <XbotCbDealRxDisCtrl+0x4a>
		{
			if(CBDIS_RXD_START != TempData)
    1120:	85 3a       	cpi	r24, 0xA5	; 165
    1122:	09 f0       	breq	.+2      	; 0x1126 <XbotCbDealRxDisCtrl+0x42>
    1124:	40 c0       	rjmp	.+128    	; 0x11a6 <XbotCbDealRxDisCtrl+0xc2>
			{
				DataIndex = 0;
			}
			else
			{
				pDa->RxdDataBuf[DataIndex] = TempData;
    1126:	8d 87       	std	Y+13, r24	; 0x0d
				DataIndex++;
    1128:	d0 92 cf 20 	sts	0x20CF, r13
    112c:	3e c0       	rjmp	.+124    	; 0x11aa <XbotCbDealRxDisCtrl+0xc6>
			}
		}
		else if (DataIndex < CBDIS_RXD_LEN-1)
    112e:	9c 30       	cpi	r25, 0x0C	; 12
    1130:	40 f4       	brcc	.+16     	; 0x1142 <XbotCbDealRxDisCtrl+0x5e>
		{
			pDa->RxdDataBuf[DataIndex] = TempData;
    1132:	fe 01       	movw	r30, r28
    1134:	e9 0f       	add	r30, r25
    1136:	f1 1d       	adc	r31, r1
    1138:	85 87       	std	Z+13, r24	; 0x0d
			DataIndex++;
    113a:	9f 5f       	subi	r25, 0xFF	; 255
    113c:	90 93 cf 20 	sts	0x20CF, r25
    1140:	34 c0       	rjmp	.+104    	; 0x11aa <XbotCbDealRxDisCtrl+0xc6>
		}
		else if (DataIndex == CBDIS_RXD_LEN-1)
    1142:	9c 30       	cpi	r25, 0x0C	; 12
    1144:	81 f5       	brne	.+96     	; 0x11a6 <XbotCbDealRxDisCtrl+0xc2>
		{
			pDa->RxdDataBuf[DataIndex] = TempData;
    1146:	89 8f       	std	Y+25, r24	; 0x19
			DataIndex++;
    1148:	b0 92 cf 20 	sts	0x20CF, r11

			/*******    求校验和       *******/
			pDa->CheckSum = 0;
    114c:	1c 8e       	std	Y+28, r1	; 0x1c
    114e:	fe 01       	movw	r30, r28

			for(TempCount=0;TempCount<CBDIS_RXD_LEN-1;TempCount++)
			{
				pDa->CheckSum += pDa->RxdDataBuf[TempCount];
    1150:	9c 8d       	ldd	r25, Y+28	; 0x1c
    1152:	85 85       	ldd	r24, Z+13	; 0x0d
    1154:	98 0f       	add	r25, r24
    1156:	9c 8f       	std	Y+28, r25	; 0x1c
    1158:	31 96       	adiw	r30, 0x01	; 1
			DataIndex++;

			/*******    求校验和       *******/
			pDa->CheckSum = 0;

			for(TempCount=0;TempCount<CBDIS_RXD_LEN-1;TempCount++)
    115a:	ee 15       	cp	r30, r14
    115c:	ff 05       	cpc	r31, r15
    115e:	c1 f7       	brne	.-16     	; 0x1150 <XbotCbDealRxDisCtrl+0x6c>
			{
				pDa->CheckSum += pDa->RxdDataBuf[TempCount];
			}

			/******* 如果校验和对，解析指令 *******/
			if(pDa->RxdDataBuf[CBDIS_RXD_LEN-1] == pDa->CheckSum )
    1160:	89 8d       	ldd	r24, Y+25	; 0x19
    1162:	89 17       	cp	r24, r25
    1164:	01 f5       	brne	.+64     	; 0x11a6 <XbotCbDealRxDisCtrl+0xc2>
		while (!USART_TXBuffer_PutByte(usart_data,SendData[Index]));
}

inline static void CbDisSetCtrlData(CBDIS_CTRL_DATA_STRUCT* pDa,CB_CTRL_DATA_STRUCT* pCtrlData)
{
	if((pDa->RxdDataBuf[1]&0x80) != 0x00)
    1166:	8e 85       	ldd	r24, Y+14	; 0x0e
    1168:	87 fd       	sbrc	r24, 7
    116a:	1d c0       	rjmp	.+58     	; 0x11a6 <XbotCbDealRxDisCtrl+0xc2>
		return;

	if(((pDa->RxdDataBuf[1]>>4)&0x0F) == 0x00)
    116c:	82 95       	swap	r24
    116e:	8f 70       	andi	r24, 0x0F	; 15
    1170:	81 f4       	brne	.+32     	; 0x1192 <XbotCbDealRxDisCtrl+0xae>
	{
		pCtrlData->Arm0WorkMode 	= (pDa->RxdDataBuf[2]>>5)&0X07;			//摆腿工作模式
    1172:	8f 85       	ldd	r24, Y+15	; 0x0f
    1174:	82 95       	swap	r24
    1176:	86 95       	lsr	r24
    1178:	87 70       	andi	r24, 0x07	; 7
    117a:	80 93 ae 20 	sts	0x20AE, r24
		pCtrlData->Arm18WorkMode 	= (pDa->RxdDataBuf[2]>>2)&0X07;;		//机械臂工作模式
    117e:	8f 85       	ldd	r24, Y+15	; 0x0f
    1180:	86 95       	lsr	r24
    1182:	86 95       	lsr	r24
    1184:	87 70       	andi	r24, 0x07	; 7
    1186:	80 93 af 20 	sts	0x20AF, r24
		pCtrlData->YtWorkMode 		= (pDa->RxdDataBuf[2]>>0)&0X03;;		//云台工作模式
    118a:	8f 85       	ldd	r24, Y+15	; 0x0f
    118c:	83 70       	andi	r24, 0x03	; 3
    118e:	80 93 b0 20 	sts	0x20B0, r24

	}

	if(pDa->RxdDataBuf[3] == 0x8A)
    1192:	88 89       	ldd	r24, Y+16	; 0x10
    1194:	8a 38       	cpi	r24, 0x8A	; 138
    1196:	19 f4       	brne	.+6      	; 0x119e <XbotCbDealRxDisCtrl+0xba>
		pCtrlData->TestMode = TEST_NO_LIMIT;
    1198:	d0 92 b1 20 	sts	0x20B1, r13
    119c:	04 c0       	rjmp	.+8      	; 0x11a6 <XbotCbDealRxDisCtrl+0xc2>
	else if(pDa->RxdDataBuf[3] == 0x8B)
    119e:	8b 38       	cpi	r24, 0x8B	; 139
    11a0:	11 f4       	brne	.+4      	; 0x11a6 <XbotCbDealRxDisCtrl+0xc2>
		pCtrlData->TestMode = TEST_SET_ZERO;
    11a2:	c0 92 b1 20 	sts	0x20B1, r12
			/******* 复位，重新开始新的一帧探测 *******/
			DataIndex = 0;
		}
		else
		{
			DataIndex = 0;
    11a6:	10 92 cf 20 	sts	0x20CF, r1
{
	uint8_t TempData,TempCount;

	static uint8_t DataIndex = 0;

	while (USART_RXBufferData_Available(p_usart_data))
    11aa:	c8 01       	movw	r24, r16
    11ac:	0e 94 54 0d 	call	0x1aa8	; 0x1aa8 <USART_RXBufferData_Available>
    11b0:	88 23       	and	r24, r24
    11b2:	09 f0       	breq	.+2      	; 0x11b6 <XbotCbDealRxDisCtrl+0xd2>
    11b4:	ae cf       	rjmp	.-164    	; 0x1112 <XbotCbDealRxDisCtrl+0x2e>
		}
	}

	/***  没有成功解析新的一帧数据 ****/

}
    11b6:	df 91       	pop	r29
    11b8:	cf 91       	pop	r28
    11ba:	1f 91       	pop	r17
    11bc:	0f 91       	pop	r16
    11be:	ff 90       	pop	r15
    11c0:	ef 90       	pop	r14
    11c2:	df 90       	pop	r13
    11c4:	cf 90       	pop	r12
    11c6:	bf 90       	pop	r11
    11c8:	08 95       	ret

000011ca <XbotCbSendDisCtrl>:
	}
	return TempSpeed;

}
static void XbotCbSendDisCtrl(USART_data_t * usart_data,CB_CTRL_DATA_STRUCT* pDa)
{
    11ca:	ef 92       	push	r14
    11cc:	ff 92       	push	r15
    11ce:	0f 93       	push	r16
    11d0:	1f 93       	push	r17
    11d2:	df 93       	push	r29
    11d4:	cf 93       	push	r28
    11d6:	cd b7       	in	r28, 0x3d	; 61
    11d8:	de b7       	in	r29, 0x3e	; 62
    11da:	2e 97       	sbiw	r28, 0x0e	; 14
    11dc:	cd bf       	out	0x3d, r28	; 61
    11de:	de bf       	out	0x3e, r29	; 62
    11e0:	7c 01       	movw	r14, r24
    11e2:	8b 01       	movw	r16, r22
	uint8_t SendData[CBDIS_TXD_LEN];
	static uint8_t SendIndex=0x00;
	static uint8_t Index=0x00;

	SendIndex++;
    11e4:	90 91 d1 20 	lds	r25, 0x20D1
    11e8:	9f 5f       	subi	r25, 0xFF	; 255
	SendIndex = SendIndex&0x03;
    11ea:	93 70       	andi	r25, 0x03	; 3
    11ec:	90 93 d1 20 	sts	0x20D1, r25

	SendData[0] = CBDIS_TXD_START;			//设置帧头
    11f0:	85 ea       	ldi	r24, 0xA5	; 165
    11f2:	89 83       	std	Y+1, r24	; 0x01
	SendData[1] = SendIndex;				//设置数据方向、命令字、回传序号
    11f4:	9a 83       	std	Y+2, r25	; 0x02

	SendData[2] = CbDisGetSpeed(pDa->LeftMoveCtrl,pDa->LeftMoveSpeed);
    11f6:	fb 01       	movw	r30, r22
    11f8:	85 8d       	ldd	r24, Z+29	; 0x1d
    11fa:	67 8d       	ldd	r22, Z+31	; 0x1f
    11fc:	9e 87       	std	Y+14, r25	; 0x0e
    11fe:	0e 94 5b 08 	call	0x10b6	; 0x10b6 <CbDisGetSpeed>
    1202:	8b 83       	std	Y+3, r24	; 0x03
	SendData[3] = CbDisGetSpeed(pDa->RightMoveCtrl,pDa->RightMoveSpeed);
    1204:	f8 01       	movw	r30, r16
    1206:	86 8d       	ldd	r24, Z+30	; 0x1e
    1208:	60 a1       	ldd	r22, Z+32	; 0x20
    120a:	0e 94 5b 08 	call	0x10b6	; 0x10b6 <CbDisGetSpeed>
    120e:	8c 83       	std	Y+4, r24	; 0x04

	if(SendIndex==0x00)
    1210:	9e 85       	ldd	r25, Y+14	; 0x0e
    1212:	99 23       	and	r25, r25
    1214:	39 f4       	brne	.+14     	; 0x1224 <XbotCbSendDisCtrl+0x5a>
	{
		SendData[4] =pDa->Arm1Angle;
    1216:	f8 01       	movw	r30, r16
    1218:	85 a5       	ldd	r24, Z+45	; 0x2d
    121a:	8d 83       	std	Y+5, r24	; 0x05
		SendData[5] =pDa->Arm5Angle;
    121c:	81 a9       	ldd	r24, Z+49	; 0x31
    121e:	8e 83       	std	Y+6, r24	; 0x06
		SendData[6] =pDa->HandWidth;
    1220:	84 a9       	ldd	r24, Z+52	; 0x34
    1222:	08 c0       	rjmp	.+16     	; 0x1234 <XbotCbSendDisCtrl+0x6a>
		SendData[7] = 100;//pDa->Arm0ModeTime;
	}

	else if(SendIndex==0x01)
    1224:	91 30       	cpi	r25, 0x01	; 1
    1226:	49 f4       	brne	.+18     	; 0x123a <XbotCbSendDisCtrl+0x70>
	{
		SendData[4] =pDa->Arm2Angle;
    1228:	f8 01       	movw	r30, r16
    122a:	86 a5       	ldd	r24, Z+46	; 0x2e
    122c:	8d 83       	std	Y+5, r24	; 0x05
		SendData[5] =pDa->Arm6Angle;
    122e:	82 a9       	ldd	r24, Z+50	; 0x32
    1230:	8e 83       	std	Y+6, r24	; 0x06
		SendData[6] = pDa->Arm0Angle;;
    1232:	84 a5       	ldd	r24, Z+44	; 0x2c
    1234:	8f 83       	std	Y+7, r24	; 0x07
		SendData[7] =100;//pDa->Arm18ModeTime;
    1236:	84 e6       	ldi	r24, 0x64	; 100
    1238:	12 c0       	rjmp	.+36     	; 0x125e <XbotCbSendDisCtrl+0x94>
	}
	else if(SendIndex==0x02)
    123a:	92 30       	cpi	r25, 0x02	; 2
    123c:	41 f4       	brne	.+16     	; 0x124e <XbotCbSendDisCtrl+0x84>
	{
		SendData[4] =pDa->Arm3Angle;
    123e:	f8 01       	movw	r30, r16
    1240:	87 a5       	ldd	r24, Z+47	; 0x2f
    1242:	8d 83       	std	Y+5, r24	; 0x05
		SendData[5] =pDa->Arm7Angle;
    1244:	83 a9       	ldd	r24, Z+51	; 0x33
    1246:	8e 83       	std	Y+6, r24	; 0x06
		SendData[6] =pDa->CtrlBoxPowerVal/2;
    1248:	80 ad       	ldd	r24, Z+56	; 0x38
    124a:	86 95       	lsr	r24
    124c:	06 c0       	rjmp	.+12     	; 0x125a <XbotCbSendDisCtrl+0x90>
		SendData[7] =CBDIS_NC_DATA;
	}
	else if(SendIndex==0x03)
	{
		SendData[4] =pDa->Arm4Angle;
    124e:	f8 01       	movw	r30, r16
    1250:	80 a9       	ldd	r24, Z+48	; 0x30
    1252:	8d 83       	std	Y+5, r24	; 0x05
		SendData[5] =pDa->CamPtAngle;
    1254:	85 a9       	ldd	r24, Z+53	; 0x35
    1256:	8e 83       	std	Y+6, r24	; 0x06
		SendData[6] =pDa->RobotSelfPowerVal;
    1258:	81 ad       	ldd	r24, Z+57	; 0x39
    125a:	8f 83       	std	Y+7, r24	; 0x07
		SendData[7] =CBDIS_NC_DATA;
    125c:	8c ec       	ldi	r24, 0xCC	; 204
    125e:	88 87       	std	Y+8, r24	; 0x08
	}

	SendData[8] = ((pDa->Arm0WorkMode&0x7)<<5)
    1260:	f8 01       	movw	r30, r16
    1262:	83 ad       	ldd	r24, Z+59	; 0x3b
    1264:	22 ad       	ldd	r18, Z+58	; 0x3a
    1266:	22 95       	swap	r18
    1268:	22 0f       	add	r18, r18
    126a:	20 7e       	andi	r18, 0xE0	; 224
    126c:	38 2f       	mov	r19, r24
    126e:	33 70       	andi	r19, 0x03	; 3
    1270:	23 2b       	or	r18, r19
    1272:	90 e0       	ldi	r25, 0x00	; 0
    1274:	87 70       	andi	r24, 0x07	; 7
    1276:	90 70       	andi	r25, 0x00	; 0
    1278:	88 0f       	add	r24, r24
    127a:	99 1f       	adc	r25, r25
    127c:	88 0f       	add	r24, r24
    127e:	99 1f       	adc	r25, r25
    1280:	28 2b       	or	r18, r24
    1282:	29 87       	std	Y+9, r18	; 0x09
			|((pDa->Arm18WorkMode&0x7)<<2)|(pDa->Arm18WorkMode&0x03);

	SendData[9] = CBDIS_NC_DATA;
    1284:	8c ec       	ldi	r24, 0xCC	; 204
    1286:	8a 87       	std	Y+10, r24	; 0x0a
	SendData[10] = CBDIS_NC_DATA;
    1288:	8b 87       	std	Y+11, r24	; 0x0b
	SendData[11] = CBDIS_NC_DATA;
    128a:	8c 87       	std	Y+12, r24	; 0x0c

	SendData[CBDIS_TXD_LEN-1] = 0x00;
    128c:	1d 86       	std	Y+13, r1	; 0x0d
    128e:	20 e0       	ldi	r18, 0x00	; 0
	for(Index=0;Index<CBDIS_TXD_LEN-1;Index++)
		SendData[CBDIS_TXD_LEN-1] += SendData[Index];
    1290:	ae 01       	movw	r20, r28
    1292:	4f 5f       	subi	r20, 0xFF	; 255
    1294:	5f 4f       	sbci	r21, 0xFF	; 255
    1296:	08 c0       	rjmp	.+16     	; 0x12a8 <XbotCbSendDisCtrl+0xde>
    1298:	fa 01       	movw	r30, r20
    129a:	e2 0f       	add	r30, r18
    129c:	f1 1d       	adc	r31, r1
    129e:	8d 85       	ldd	r24, Y+13	; 0x0d
    12a0:	90 81       	ld	r25, Z
    12a2:	89 0f       	add	r24, r25
    12a4:	8d 87       	std	Y+13, r24	; 0x0d
    12a6:	2f 5f       	subi	r18, 0xFF	; 255
	SendData[9] = CBDIS_NC_DATA;
	SendData[10] = CBDIS_NC_DATA;
	SendData[11] = CBDIS_NC_DATA;

	SendData[CBDIS_TXD_LEN-1] = 0x00;
	for(Index=0;Index<CBDIS_TXD_LEN-1;Index++)
    12a8:	2c 30       	cpi	r18, 0x0C	; 12
    12aa:	b0 f3       	brcs	.-20     	; 0x1298 <XbotCbSendDisCtrl+0xce>
		SendData[CBDIS_TXD_LEN-1] += SendData[Index];


	for(Index=0;Index<CBDIS_TXD_LEN;Index++)
    12ac:	10 92 d0 20 	sts	0x20D0, r1
		while (!USART_TXBuffer_PutByte(usart_data,SendData[Index]));
    12b0:	8e 01       	movw	r16, r28
    12b2:	0f 5f       	subi	r16, 0xFF	; 255
    12b4:	1f 4f       	sbci	r17, 0xFF	; 255
    12b6:	10 c0       	rjmp	.+32     	; 0x12d8 <XbotCbSendDisCtrl+0x10e>
    12b8:	80 91 d0 20 	lds	r24, 0x20D0
    12bc:	f8 01       	movw	r30, r16
    12be:	e8 0f       	add	r30, r24
    12c0:	f1 1d       	adc	r31, r1
    12c2:	c7 01       	movw	r24, r14
    12c4:	60 81       	ld	r22, Z
    12c6:	0e 94 2d 0d 	call	0x1a5a	; 0x1a5a <USART_TXBuffer_PutByte>
    12ca:	88 23       	and	r24, r24
    12cc:	a9 f3       	breq	.-22     	; 0x12b8 <XbotCbSendDisCtrl+0xee>
	SendData[CBDIS_TXD_LEN-1] = 0x00;
	for(Index=0;Index<CBDIS_TXD_LEN-1;Index++)
		SendData[CBDIS_TXD_LEN-1] += SendData[Index];


	for(Index=0;Index<CBDIS_TXD_LEN;Index++)
    12ce:	80 91 d0 20 	lds	r24, 0x20D0
    12d2:	8f 5f       	subi	r24, 0xFF	; 255
    12d4:	80 93 d0 20 	sts	0x20D0, r24
    12d8:	80 91 d0 20 	lds	r24, 0x20D0
    12dc:	8d 30       	cpi	r24, 0x0D	; 13
    12de:	60 f3       	brcs	.-40     	; 0x12b8 <XbotCbSendDisCtrl+0xee>
		while (!USART_TXBuffer_PutByte(usart_data,SendData[Index]));
}
    12e0:	2e 96       	adiw	r28, 0x0e	; 14
    12e2:	cd bf       	out	0x3d, r28	; 61
    12e4:	de bf       	out	0x3e, r29	; 62
    12e6:	cf 91       	pop	r28
    12e8:	df 91       	pop	r29
    12ea:	1f 91       	pop	r17
    12ec:	0f 91       	pop	r16
    12ee:	ff 90       	pop	r15
    12f0:	ef 90       	pop	r14
    12f2:	08 95       	ret

000012f4 <TC0_ConfigClockSource>:
 *
 *  \param tc              Timer/Counter module instance.
 *  \param clockSelection  Timer/Counter clock source setting.
 */
void TC0_ConfigClockSource( volatile TC0_t * tc, TC_CLKSEL_t clockSelection )
{
    12f4:	fc 01       	movw	r30, r24
	tc->CTRLA = ( tc->CTRLA & ~TC0_CLKSEL_gm ) | clockSelection;
    12f6:	80 81       	ld	r24, Z
    12f8:	80 7f       	andi	r24, 0xF0	; 240
    12fa:	86 2b       	or	r24, r22
    12fc:	80 83       	st	Z, r24
}
    12fe:	08 95       	ret

00001300 <TC1_ConfigClockSource>:
 *
 *  \param tc              Timer/Counter module instance.
 *  \param clockSelection  Timer/Counter clock source setting.
 */
void TC1_ConfigClockSource( volatile TC1_t * tc, TC_CLKSEL_t clockSelection )
{
    1300:	fc 01       	movw	r30, r24
	tc->CTRLA = ( tc->CTRLA & ~TC1_CLKSEL_gm ) | clockSelection;
    1302:	80 81       	ld	r24, Z
    1304:	80 7f       	andi	r24, 0xF0	; 240
    1306:	86 2b       	or	r24, r22
    1308:	80 83       	st	Z, r24
}
    130a:	08 95       	ret

0000130c <TC0_ConfigWGM>:
 *
 *  \param tc    Timer/Counter module instance.
 *  \param wgm   Waveform generation mode.
 */
void TC0_ConfigWGM( volatile TC0_t * tc, TC_WGMODE_t wgm )
{
    130c:	fc 01       	movw	r30, r24
	tc->CTRLB = ( tc->CTRLB & ~TC0_WGMODE_gm ) | wgm;
    130e:	81 81       	ldd	r24, Z+1	; 0x01
    1310:	88 7f       	andi	r24, 0xF8	; 248
    1312:	86 2b       	or	r24, r22
    1314:	81 83       	std	Z+1, r24	; 0x01
}
    1316:	08 95       	ret

00001318 <TC1_ConfigWGM>:
 *
 *  \param tc    Timer/Counter module instance.
 *  \param wgm   Waveform generation mode.
 */
void TC1_ConfigWGM( volatile TC1_t * tc, TC_WGMODE_t wgm )
{
    1318:	fc 01       	movw	r30, r24
	tc->CTRLB = ( tc->CTRLB & ~TC1_WGMODE_gm ) | wgm;
    131a:	81 81       	ldd	r24, Z+1	; 0x01
    131c:	88 7f       	andi	r24, 0xF8	; 248
    131e:	86 2b       	or	r24, r22
    1320:	81 83       	std	Z+1, r24	; 0x01
}
    1322:	08 95       	ret

00001324 <TC0_ConfigInputCapture>:
 *
 *  \param tc               Timer/Counter module instance.
 *  \param eventSource      Event source selection.
 */
void TC0_ConfigInputCapture( volatile TC0_t * tc, TC_EVSEL_t eventSource )
{
    1324:	fc 01       	movw	r30, r24
	tc->CTRLD = ( tc->CTRLD & ~( TC0_EVSEL_gm | TC0_EVACT_gm ) ) |
    1326:	83 81       	ldd	r24, Z+3	; 0x03
    1328:	80 71       	andi	r24, 0x10	; 16
    132a:	80 62       	ori	r24, 0x20	; 32
    132c:	86 2b       	or	r24, r22
    132e:	83 83       	std	Z+3, r24	; 0x03
	            eventSource |
	            TC_EVACT_CAPT_gc;
}
    1330:	08 95       	ret

00001332 <TC1_ConfigInputCapture>:
 *
 *  \param tc               Timer/Counter module instance.
 *  \param eventSource      Event source selection.
 */
void TC1_ConfigInputCapture( volatile TC1_t * tc, TC_EVSEL_t eventSource )
{
    1332:	fc 01       	movw	r30, r24
	tc->CTRLD = ( tc->CTRLD & ~( TC1_EVSEL_gm | TC1_EVACT_gm ) ) |
    1334:	83 81       	ldd	r24, Z+3	; 0x03
    1336:	80 71       	andi	r24, 0x10	; 16
    1338:	80 62       	ori	r24, 0x20	; 32
    133a:	86 2b       	or	r24, r22
    133c:	83 83       	std	Z+3, r24	; 0x03
	            eventSource |
	            TC_EVACT_CAPT_gc;
}
    133e:	08 95       	ret

00001340 <TC0_EnableCCChannels>:
 *
 *  \param tc               Timer/Counter module instance.
 *  \param enableMask       Mask of channels to enable.
 */
void TC0_EnableCCChannels( volatile TC0_t * tc, uint8_t enableMask )
{
    1340:	fc 01       	movw	r30, r24
	/* Make sure only CCxEN bits are set in enableMask. */
	enableMask &= ( TC0_CCAEN_bm | TC0_CCBEN_bm | TC0_CCCEN_bm | TC0_CCDEN_bm );

	/* Enable channels. */
	tc->CTRLB |= enableMask;
    1342:	81 81       	ldd	r24, Z+1	; 0x01
    1344:	60 7f       	andi	r22, 0xF0	; 240
    1346:	86 2b       	or	r24, r22
    1348:	81 83       	std	Z+1, r24	; 0x01
}
    134a:	08 95       	ret

0000134c <TC1_EnableCCChannels>:
 *
 *  \param tc               Timer/Counter module instance.
 *  \param enableMask       Mask of channels to enable.
 */
void TC1_EnableCCChannels( volatile TC1_t * tc, uint8_t enableMask )
{
    134c:	fc 01       	movw	r30, r24
	/* Make sure only CCxEN bits are set in enableMask. */
	enableMask &= ( TC1_CCAEN_bm | TC1_CCBEN_bm );

	/* Enable channels. */
	tc->CTRLB |= enableMask;
    134e:	81 81       	ldd	r24, Z+1	; 0x01
    1350:	60 73       	andi	r22, 0x30	; 48
    1352:	86 2b       	or	r24, r22
    1354:	81 83       	std	Z+1, r24	; 0x01
}
    1356:	08 95       	ret

00001358 <TC0_DisableCCChannels>:
 *
 *  \param tc               Timer/Counter module instance.
 *  \param disableMask      Mask of channels to disable.
 */
void TC0_DisableCCChannels( volatile TC0_t * tc, uint8_t disableMask )
{
    1358:	fc 01       	movw	r30, r24
	/* Make sure only CCxEN bits are set in disableMask. */
	disableMask &= ( TC0_CCAEN_bm | TC0_CCBEN_bm | TC0_CCCEN_bm | TC0_CCDEN_bm );

	/* Disable channels. */
	tc->CTRLB &= ~disableMask;
    135a:	81 81       	ldd	r24, Z+1	; 0x01
    135c:	60 7f       	andi	r22, 0xF0	; 240
    135e:	60 95       	com	r22
    1360:	86 23       	and	r24, r22
    1362:	81 83       	std	Z+1, r24	; 0x01
}
    1364:	08 95       	ret

00001366 <TC1_DisableCCChannels>:
 *
 *  \param tc               Timer/Counter module instance.
 *  \param disableMask      Mask of channels to disable.
 */
void TC1_DisableCCChannels( volatile TC1_t * tc, uint8_t disableMask )
{
    1366:	fc 01       	movw	r30, r24
	/* Make sure only CCxEN bits are set in disableMask. */
	disableMask &= ( TC1_CCAEN_bm | TC1_CCBEN_bm );

	/* Disable channels. */
	tc->CTRLB &= ~disableMask;
    1368:	81 81       	ldd	r24, Z+1	; 0x01
    136a:	60 73       	andi	r22, 0x30	; 48
    136c:	60 95       	com	r22
    136e:	86 23       	and	r24, r22
    1370:	81 83       	std	Z+1, r24	; 0x01
}
    1372:	08 95       	ret

00001374 <TC0_SetOverflowIntLevel>:
 *
 *  \param tc               Timer/Counter module instance.
 *  \param intLevel         New overflow interrupt level.
 */
void TC0_SetOverflowIntLevel( volatile TC0_t * tc, TC_OVFINTLVL_t intLevel )
{
    1374:	fc 01       	movw	r30, r24
	tc->INTCTRLA = ( tc->INTCTRLA & ~TC0_OVFINTLVL_gm ) | intLevel;
    1376:	86 81       	ldd	r24, Z+6	; 0x06
    1378:	8c 7f       	andi	r24, 0xFC	; 252
    137a:	86 2b       	or	r24, r22
    137c:	86 83       	std	Z+6, r24	; 0x06
}
    137e:	08 95       	ret

00001380 <TC1_SetOverflowIntLevel>:
 *
 *  \param tc               Timer/Counter module instance.
 *  \param intLevel         New overflow interrupt level.
 */
void TC1_SetOverflowIntLevel( volatile TC1_t * tc, TC_OVFINTLVL_t intLevel )
{
    1380:	fc 01       	movw	r30, r24
	tc->INTCTRLA = ( tc->INTCTRLA & ~TC1_OVFINTLVL_gm ) | intLevel;
    1382:	86 81       	ldd	r24, Z+6	; 0x06
    1384:	8c 7f       	andi	r24, 0xFC	; 252
    1386:	86 2b       	or	r24, r22
    1388:	86 83       	std	Z+6, r24	; 0x06
}
    138a:	08 95       	ret

0000138c <TC0_SetErrorIntLevel>:
 *
 *  \param tc               Timer/Counter module instance.
 *  \param intLevel         New error interrupt level.
 */
void TC0_SetErrorIntLevel( volatile TC0_t * tc, TC_ERRINTLVL_t intLevel )
{
    138c:	fc 01       	movw	r30, r24
	tc->INTCTRLA = ( tc->INTCTRLA & ~TC0_ERRINTLVL_gm ) | intLevel;
    138e:	86 81       	ldd	r24, Z+6	; 0x06
    1390:	83 7f       	andi	r24, 0xF3	; 243
    1392:	86 2b       	or	r24, r22
    1394:	86 83       	std	Z+6, r24	; 0x06
}
    1396:	08 95       	ret

00001398 <TC1_SetErrorIntLevel>:
 *
 *  \param tc               Timer/Counter module instance.
 *  \param intLevel         New error interrupt level.
 */
void TC1_SetErrorIntLevel( volatile TC1_t * tc, TC_ERRINTLVL_t intLevel )
{
    1398:	fc 01       	movw	r30, r24
	tc->INTCTRLA = ( tc->INTCTRLA & ~TC1_ERRINTLVL_gm ) | intLevel;
    139a:	86 81       	ldd	r24, Z+6	; 0x06
    139c:	83 7f       	andi	r24, 0xF3	; 243
    139e:	86 2b       	or	r24, r22
    13a0:	86 83       	std	Z+6, r24	; 0x06
}
    13a2:	08 95       	ret

000013a4 <TC0_SetCCAIntLevel>:
 *
 *  \param tc               Timer/Counter module instance.
 *  \param intLevel         New compare/capture channel A interrupt level.
 */
void TC0_SetCCAIntLevel( volatile TC0_t * tc, TC_CCAINTLVL_t intLevel )
{
    13a4:	fc 01       	movw	r30, r24
	tc->INTCTRLB = ( tc->INTCTRLB & ~TC0_CCAINTLVL_gm ) | intLevel;
    13a6:	87 81       	ldd	r24, Z+7	; 0x07
    13a8:	8c 7f       	andi	r24, 0xFC	; 252
    13aa:	86 2b       	or	r24, r22
    13ac:	87 83       	std	Z+7, r24	; 0x07
}
    13ae:	08 95       	ret

000013b0 <TC1_SetCCAIntLevel>:
 *
 *  \param tc               Timer/Counter module instance.
 *  \param intLevel         New compare/capture channel A interrupt level.
 */
void TC1_SetCCAIntLevel( volatile TC1_t * tc, TC_CCAINTLVL_t intLevel )
{
    13b0:	fc 01       	movw	r30, r24
	tc->INTCTRLB = ( tc->INTCTRLB & ~TC1_CCAINTLVL_gm ) | intLevel;
    13b2:	87 81       	ldd	r24, Z+7	; 0x07
    13b4:	8c 7f       	andi	r24, 0xFC	; 252
    13b6:	86 2b       	or	r24, r22
    13b8:	87 83       	std	Z+7, r24	; 0x07
}
    13ba:	08 95       	ret

000013bc <TC0_SetCCBIntLevel>:
 *
 *  \param tc               Timer/Counter module instance.
 *  \param intLevel         New compare/capture channel B interrupt level.
 */
void TC0_SetCCBIntLevel( volatile TC0_t * tc, TC_CCBINTLVL_t intLevel )
{
    13bc:	fc 01       	movw	r30, r24
	tc->INTCTRLB = ( tc->INTCTRLB & ~TC0_CCBINTLVL_gm ) | intLevel;
    13be:	87 81       	ldd	r24, Z+7	; 0x07
    13c0:	83 7f       	andi	r24, 0xF3	; 243
    13c2:	86 2b       	or	r24, r22
    13c4:	87 83       	std	Z+7, r24	; 0x07
}
    13c6:	08 95       	ret

000013c8 <TC1_SetCCBIntLevel>:
 *
 *  \param tc               Timer/Counter module instance.
 *  \param intLevel         New compare/capture channel B interrupt level.
 */
void TC1_SetCCBIntLevel( volatile TC1_t * tc, TC_CCBINTLVL_t intLevel )
{
    13c8:	fc 01       	movw	r30, r24
	tc->INTCTRLB = ( tc->INTCTRLB & ~TC1_CCBINTLVL_gm ) | intLevel;
    13ca:	87 81       	ldd	r24, Z+7	; 0x07
    13cc:	83 7f       	andi	r24, 0xF3	; 243
    13ce:	86 2b       	or	r24, r22
    13d0:	87 83       	std	Z+7, r24	; 0x07
}
    13d2:	08 95       	ret

000013d4 <TC0_SetCCCIntLevel>:
 *
 *  \param tc               Timer/Counter module instance.
 *  \param intLevel         New compare/capture channel A interrupt level.
 */
void TC0_SetCCCIntLevel( volatile TC0_t * tc, TC_CCCINTLVL_t intLevel )
{
    13d4:	fc 01       	movw	r30, r24
	tc->INTCTRLB = ( tc->INTCTRLB & ~TC0_CCCINTLVL_gm ) | intLevel;
    13d6:	87 81       	ldd	r24, Z+7	; 0x07
    13d8:	8f 7c       	andi	r24, 0xCF	; 207
    13da:	86 2b       	or	r24, r22
    13dc:	87 83       	std	Z+7, r24	; 0x07
}
    13de:	08 95       	ret

000013e0 <TC0_SetCCDIntLevel>:
 *
 *  \param tc               Timer/Counter module instance.
 *  \param intLevel         New compare/capture channel A interrupt level.
 */
void TC0_SetCCDIntLevel( volatile TC0_t * tc, TC_CCDINTLVL_t intLevel )
{
    13e0:	fc 01       	movw	r30, r24
	tc->INTCTRLB = ( tc->INTCTRLB & ~TC0_CCDINTLVL_gm ) | intLevel;
    13e2:	87 81       	ldd	r24, Z+7	; 0x07
    13e4:	8f 73       	andi	r24, 0x3F	; 63
    13e6:	86 2b       	or	r24, r22
    13e8:	87 83       	std	Z+7, r24	; 0x07
}
    13ea:	08 95       	ret

000013ec <TC0_Reset>:
 *  reset of the device.
 *
 *  \param tc  Timer/Counter 0 module instance.
 */
void TC0_Reset( volatile TC0_t * tc )
{
    13ec:	fc 01       	movw	r30, r24
	/* TC must be turned off before a Reset command. */
	tc->CTRLA = ( tc->CTRLA & ~TC0_CLKSEL_gm ) | TC_CLKSEL_OFF_gc;
    13ee:	80 81       	ld	r24, Z
    13f0:	80 7f       	andi	r24, 0xF0	; 240
    13f2:	80 83       	st	Z, r24

	/* Issue Reset command. */
	tc->CTRLFSET = TC_CMD_RESET_gc;
    13f4:	8c e0       	ldi	r24, 0x0C	; 12
    13f6:	81 87       	std	Z+9, r24	; 0x09
}
    13f8:	08 95       	ret

000013fa <TC1_Reset>:
 *  reset of the device.
 *
 *  \param tc  Timer/Counter 1 module instance.
 */
void TC1_Reset( volatile TC1_t * tc )
{
    13fa:	fc 01       	movw	r30, r24
	/* TC must be turned off before a Reset command. */
	tc->CTRLA = ( tc->CTRLA & ~TC1_CLKSEL_gm ) | TC_CLKSEL_OFF_gc;
    13fc:	80 81       	ld	r24, Z
    13fe:	80 7f       	andi	r24, 0xF0	; 240
    1400:	80 83       	st	Z, r24

	/* Issue Reset command. */
	tc->CTRLFSET = TC_CMD_RESET_gc;
    1402:	8c e0       	ldi	r24, 0x0C	; 12
    1404:	81 87       	std	Z+9, r24	; 0x09
}
    1406:	08 95       	ret

00001408 <ADC_CalibrationValues_Load>:
 *  register. The calibration data reduces the non-linearity error in the adc.
 *
 *  \param  adc          Pointer to ADC module register section.
 */
void ADC_CalibrationValues_Load(ADC_t * adc)
{
    1408:	dc 01       	movw	r26, r24
	if(&ADCA == adc){
    140a:	82 e0       	ldi	r24, 0x02	; 2
    140c:	a0 30       	cpi	r26, 0x00	; 0
    140e:	b8 07       	cpc	r27, r24
    1410:	81 f4       	brne	.+32     	; 0x1432 <ADC_CalibrationValues_Load+0x2a>
uint8_t SP_ReadCalibrationByte( uint8_t index )
{
	uint8_t result;

	/* Load the NVM Command register to read the calibration row. */
	NVM_CMD = NVM_CMD_READ_CALIB_ROW_gc;
    1412:	82 e0       	ldi	r24, 0x02	; 2
    1414:	80 93 ca 01 	sts	0x01CA, r24
 	result = pgm_read_byte(index);
    1418:	e0 e2       	ldi	r30, 0x20	; 32
    141a:	f0 e0       	ldi	r31, 0x00	; 0
    141c:	e4 91       	lpm	r30, Z+

	/* Clean up NVM Command register. */
 	NVM_CMD = NVM_CMD_NO_OPERATION_gc;
    141e:	10 92 ca 01 	sts	0x01CA, r1
 */
void ADC_CalibrationValues_Load(ADC_t * adc)
{
	if(&ADCA == adc){
		 /* Get ADCACAL0 from production signature . */
		adc->CALL = SP_ReadCalibrationByte( PROD_SIGNATURES_START + ADCACAL0_offset );
    1422:	1c 96       	adiw	r26, 0x0c	; 12
    1424:	ec 93       	st	X, r30
    1426:	1c 97       	sbiw	r26, 0x0c	; 12
uint8_t SP_ReadCalibrationByte( uint8_t index )
{
	uint8_t result;

	/* Load the NVM Command register to read the calibration row. */
	NVM_CMD = NVM_CMD_READ_CALIB_ROW_gc;
    1428:	80 93 ca 01 	sts	0x01CA, r24
 	result = pgm_read_byte(index);
    142c:	e1 e2       	ldi	r30, 0x21	; 33
    142e:	f0 e0       	ldi	r31, 0x00	; 0
    1430:	0f c0       	rjmp	.+30     	; 0x1450 <ADC_CalibrationValues_Load+0x48>
uint8_t SP_ReadCalibrationByte( uint8_t index )
{
	uint8_t result;

	/* Load the NVM Command register to read the calibration row. */
	NVM_CMD = NVM_CMD_READ_CALIB_ROW_gc;
    1432:	82 e0       	ldi	r24, 0x02	; 2
    1434:	80 93 ca 01 	sts	0x01CA, r24
 	result = pgm_read_byte(index);
    1438:	e4 e2       	ldi	r30, 0x24	; 36
    143a:	f0 e0       	ldi	r31, 0x00	; 0
    143c:	e4 91       	lpm	r30, Z+

	/* Clean up NVM Command register. */
 	NVM_CMD = NVM_CMD_NO_OPERATION_gc;
    143e:	10 92 ca 01 	sts	0x01CA, r1
		 /* Get ADCACAL0 from production signature . */
		adc->CALL = SP_ReadCalibrationByte( PROD_SIGNATURES_START + ADCACAL0_offset );
		adc->CALH = SP_ReadCalibrationByte( PROD_SIGNATURES_START + ADCACAL1_offset );
	}else {
		/* Get ADCBCAL0 from production signature  */
		adc->CALL = SP_ReadCalibrationByte( PROD_SIGNATURES_START + ADCBCAL0_offset );
    1442:	1c 96       	adiw	r26, 0x0c	; 12
    1444:	ec 93       	st	X, r30
    1446:	1c 97       	sbiw	r26, 0x0c	; 12
uint8_t SP_ReadCalibrationByte( uint8_t index )
{
	uint8_t result;

	/* Load the NVM Command register to read the calibration row. */
	NVM_CMD = NVM_CMD_READ_CALIB_ROW_gc;
    1448:	80 93 ca 01 	sts	0x01CA, r24
 	result = pgm_read_byte(index);
    144c:	e5 e2       	ldi	r30, 0x25	; 37
    144e:	f0 e0       	ldi	r31, 0x00	; 0
    1450:	e4 91       	lpm	r30, Z+

	/* Clean up NVM Command register. */
 	NVM_CMD = NVM_CMD_NO_OPERATION_gc;
    1452:	10 92 ca 01 	sts	0x01CA, r1
		adc->CALL = SP_ReadCalibrationByte( PROD_SIGNATURES_START + ADCACAL0_offset );
		adc->CALH = SP_ReadCalibrationByte( PROD_SIGNATURES_START + ADCACAL1_offset );
	}else {
		/* Get ADCBCAL0 from production signature  */
		adc->CALL = SP_ReadCalibrationByte( PROD_SIGNATURES_START + ADCBCAL0_offset );
		adc->CALH = SP_ReadCalibrationByte( PROD_SIGNATURES_START + ADCBCAL1_offset );
    1456:	1d 96       	adiw	r26, 0x0d	; 13
    1458:	ec 93       	st	X, r30
    145a:	08 95       	ret

0000145c <ADC_ResultCh_GetWord_Unsigned>:
 *  \param  adc_ch  Pointer to ADC channel register section.
 *  \param  offset  Unsigned offset value to subtract.
 *  \return  The unsigned Conversion result with the offset substracted.
 */
uint16_t ADC_ResultCh_GetWord_Unsigned(ADC_CH_t * adc_ch, uint8_t offset)
{
    145c:	fc 01       	movw	r30, r24
  	uint16_t answer;

	/* Clear interrupt flag.*/
	adc_ch->INTFLAGS = ADC_CH_CHIF_bm;
    145e:	81 e0       	ldi	r24, 0x01	; 1
    1460:	83 83       	std	Z+3, r24	; 0x03

	/* Return result register contents*/
	answer = adc_ch->RES - offset;
    1462:	24 81       	ldd	r18, Z+4	; 0x04
    1464:	35 81       	ldd	r19, Z+5	; 0x05
    1466:	26 1b       	sub	r18, r22
    1468:	31 09       	sbc	r19, r1

	return answer;
}
    146a:	c9 01       	movw	r24, r18
    146c:	08 95       	ret

0000146e <ADC_ResultCh_GetWord_Signed>:
 *  \param  adc_ch  Pointer to ADC channel register section.
 *  \param  signedOffset  Offset value to subtract.
 *  \return  The signed Conversion result with the offset substracted.
 */
int16_t ADC_ResultCh_GetWord_Signed(ADC_CH_t * adc_ch, int8_t signedOffset)
{
    146e:	fc 01       	movw	r30, r24
  	int16_t answer;

	/* Clear interrupt flag.*/
	adc_ch->INTFLAGS = ADC_CH_CHIF_bm;
    1470:	81 e0       	ldi	r24, 0x01	; 1
    1472:	83 83       	std	Z+3, r24	; 0x03

	/* Return result register contents*/
	answer = adc_ch->RES - signedOffset;
    1474:	24 81       	ldd	r18, Z+4	; 0x04
    1476:	35 81       	ldd	r19, Z+5	; 0x05
    1478:	77 27       	eor	r23, r23
    147a:	67 fd       	sbrc	r22, 7
    147c:	70 95       	com	r23
    147e:	26 1b       	sub	r18, r22
    1480:	37 0b       	sbc	r19, r23

	return answer;
}
    1482:	c9 01       	movw	r24, r18
    1484:	08 95       	ret

00001486 <ADC_ResultCh_GetWord>:
 *
 *  \param  adc_ch  Pointer to ADC channel register section.
 *  \return  Signed conversion result.
 */
uint16_t ADC_ResultCh_GetWord(ADC_CH_t * adc_ch)
{
    1486:	fc 01       	movw	r30, r24
	/* Clear interrupt flag.*/
	adc_ch->INTFLAGS = ADC_CH_CHIF_bm;
    1488:	81 e0       	ldi	r24, 0x01	; 1
    148a:	83 83       	std	Z+3, r24	; 0x03

	/* Return result register contents*/
	return adc_ch->RES;;
    148c:	24 81       	ldd	r18, Z+4	; 0x04
    148e:	35 81       	ldd	r19, Z+5	; 0x05
}
    1490:	c9 01       	movw	r24, r18
    1492:	08 95       	ret

00001494 <ADC_ResultCh_GetLowByte>:
 *  \param  adc_ch  Pointer to ADC channel register section.
 *
 *  \return  Low byte of conversion result.
 */
uint8_t ADC_ResultCh_GetLowByte(ADC_CH_t * adc_ch)
{
    1494:	fc 01       	movw	r30, r24
	/* Clear interrupt flag.*/
	adc_ch->INTFLAGS = ADC_CH_CHIF_bm;
    1496:	81 e0       	ldi	r24, 0x01	; 1
    1498:	83 83       	std	Z+3, r24	; 0x03
	/* Return result register contents*/
	return adc_ch->RESL;
    149a:	84 81       	ldd	r24, Z+4	; 0x04
}
    149c:	08 95       	ret

0000149e <ADC_ResultCh_GetHighByte>:
 *  \param  adc_ch  Pointer to ADC channel register section.
 *
 *  \return  High byte of conversion result.
 */
uint8_t ADC_ResultCh_GetHighByte(ADC_CH_t * adc_ch)
{
    149e:	fc 01       	movw	r30, r24
	/* Clear interrupt flag.*/
	adc_ch->INTFLAGS = ADC_CH_CHIF_bm;
    14a0:	81 e0       	ldi	r24, 0x01	; 1
    14a2:	83 83       	std	Z+3, r24	; 0x03

	/* Return low byte result register contents.*/
	return adc_ch->RESH;
    14a4:	85 81       	ldd	r24, Z+5	; 0x05
}
    14a6:	08 95       	ret

000014a8 <ADC_Wait_8MHz>:
 *        than 8 MHz use the ADC_wait_32MHz function.
 *
 *  \param  adc Pointer to ADC module register section.
 */
void ADC_Wait_8MHz(ADC_t * adc)
{
    14a8:	fc 01       	movw	r30, r24
  	/* Store old prescaler value. */
  	uint8_t prescaler_val = adc->PRESCALER;
    14aa:	84 81       	ldd	r24, Z+4	; 0x04

	/* Set prescaler value to minimum value. */
	adc->PRESCALER = ADC_PRESCALER_DIV4_gc;
    14ac:	14 82       	std	Z+4, r1	; 0x04
    can be achieved.
*/
void
_delay_loop_1(uint8_t __count)
{
	__asm__ volatile (
    14ae:	95 e1       	ldi	r25, 0x15	; 21
    14b0:	9a 95       	dec	r25
    14b2:	f1 f7       	brne	.-4      	; 0x14b0 <ADC_Wait_8MHz+0x8>

	/* Wait 4*COMMON_MODE_CYCLES for common mode to settle. */
	delay_us(4*COMMON_MODE_CYCLES);

	/* Set prescaler to old value*/
	adc->PRESCALER = prescaler_val;
    14b4:	84 83       	std	Z+4, r24	; 0x04
}
    14b6:	08 95       	ret

000014b8 <ADC_Wait_32MHz>:
 *        device goes into sleep (not Idle sleep mode).
 *
 *  \param  adc Pointer to ADC module register section.
 */
void ADC_Wait_32MHz(ADC_t * adc)
{
    14b8:	fc 01       	movw	r30, r24
  	/* Store old prescaler value. */
  	uint8_t prescaler_val = adc->PRESCALER;
    14ba:	94 81       	ldd	r25, Z+4	; 0x04

	/* Set prescaler value to minimum value. */
	adc->PRESCALER = ADC_PRESCALER_DIV8_gc;
    14bc:	81 e0       	ldi	r24, 0x01	; 1
    14be:	84 83       	std	Z+4, r24	; 0x04
    14c0:	8a e2       	ldi	r24, 0x2A	; 42
    14c2:	8a 95       	dec	r24
    14c4:	f1 f7       	brne	.-4      	; 0x14c2 <ADC_Wait_32MHz+0xa>

	/* wait 8*COMMON_MODE_CYCLES for common mode to settle*/
	delay_us(8*COMMON_MODE_CYCLES);

	/* Set prescaler to old value*/
	adc->PRESCALER = prescaler_val;
    14c6:	94 83       	std	Z+4, r25	; 0x04
}
    14c8:	08 95       	ret

000014ca <ADC_Offset_Get_Unsigned>:
 *  \param oversampling false for one measurement. true for averaging several measurements.
 *
 *  \return Offset on the selected ADC
 */
uint8_t ADC_Offset_Get_Unsigned(ADC_t * adc, ADC_CH_t *ch, bool oversampling)
{
    14ca:	fb 01       	movw	r30, r22
    if (oversampling)
    14cc:	44 23       	and	r20, r20
    14ce:	c1 f0       	breq	.+48     	; 0x1500 <ADC_Offset_Get_Unsigned+0x36>
    14d0:	20 e0       	ldi	r18, 0x00	; 0
    14d2:	30 e0       	ldi	r19, 0x00	; 0
    14d4:	40 e0       	ldi	r20, 0x00	; 0
uint16_t ADC_ResultCh_GetWord_Unsigned(ADC_CH_t * adc_ch, uint8_t offset)
{
  	uint16_t answer;

	/* Clear interrupt flag.*/
	adc_ch->INTFLAGS = ADC_CH_CHIF_bm;
    14d6:	51 e0       	ldi	r21, 0x01	; 1
      uint16_t offset=0;
      uint8_t i = 0;
      for (i=0; i<4; i++)
      {
        /* Do one conversion to find offset. */
        ADC_Ch_Conversion_Start(ch);
    14d8:	80 81       	ld	r24, Z
    14da:	80 68       	ori	r24, 0x80	; 128
    14dc:	80 83       	st	Z, r24
    
        do{
        }while(!ADC_Ch_Conversion_Complete(ch));
    14de:	83 81       	ldd	r24, Z+3	; 0x03
    14e0:	80 ff       	sbrs	r24, 0
    14e2:	fd cf       	rjmp	.-6      	; 0x14de <ADC_Offset_Get_Unsigned+0x14>
uint16_t ADC_ResultCh_GetWord_Unsigned(ADC_CH_t * adc_ch, uint8_t offset)
{
  	uint16_t answer;

	/* Clear interrupt flag.*/
	adc_ch->INTFLAGS = ADC_CH_CHIF_bm;
    14e4:	53 83       	std	Z+3, r21	; 0x03

	/* Return result register contents*/
	answer = adc_ch->RES - offset;
    14e6:	84 81       	ldd	r24, Z+4	; 0x04
    14e8:	95 81       	ldd	r25, Z+5	; 0x05
        /* Do one conversion to find offset. */
        ADC_Ch_Conversion_Start(ch);
    
        do{
        }while(!ADC_Ch_Conversion_Complete(ch));
        offset += ADC_ResultCh_GetWord_Unsigned(ch, 0x00);
    14ea:	28 0f       	add	r18, r24
    14ec:	39 1f       	adc	r19, r25
{
    if (oversampling)
    {
      uint16_t offset=0;
      uint8_t i = 0;
      for (i=0; i<4; i++)
    14ee:	4f 5f       	subi	r20, 0xFF	; 255
    14f0:	44 30       	cpi	r20, 0x04	; 4
    14f2:	91 f7       	brne	.-28     	; 0x14d8 <ADC_Offset_Get_Unsigned+0xe>
    
        do{
        }while(!ADC_Ch_Conversion_Complete(ch));
        offset += ADC_ResultCh_GetWord_Unsigned(ch, 0x00);
      }
      return ((uint8_t)(offset>>2));
    14f4:	36 95       	lsr	r19
    14f6:	27 95       	ror	r18
    14f8:	36 95       	lsr	r19
    14fa:	27 95       	ror	r18
    14fc:	82 2f       	mov	r24, r18
    14fe:	08 95       	ret
    else
    {        
      uint8_t offset=0;
      
      /* Do one conversion to find offset. */
      ADC_Ch_Conversion_Start(ch);
    1500:	80 81       	ld	r24, Z
    1502:	80 68       	ori	r24, 0x80	; 128
    1504:	80 83       	st	Z, r24
  
      do{
      }while(!ADC_Ch_Conversion_Complete(ch));
    1506:	83 81       	ldd	r24, Z+3	; 0x03
    1508:	80 ff       	sbrs	r24, 0
    150a:	fd cf       	rjmp	.-6      	; 0x1506 <ADC_Offset_Get_Unsigned+0x3c>
 *  \return  Signed conversion result.
 */
uint16_t ADC_ResultCh_GetWord(ADC_CH_t * adc_ch)
{
	/* Clear interrupt flag.*/
	adc_ch->INTFLAGS = ADC_CH_CHIF_bm;
    150c:	81 e0       	ldi	r24, 0x01	; 1
    150e:	83 83       	std	Z+3, r24	; 0x03

	/* Return result register contents*/
	return adc_ch->RES;;
    1510:	84 81       	ldd	r24, Z+4	; 0x04
    1512:	95 81       	ldd	r25, Z+5	; 0x05
      }while(!ADC_Ch_Conversion_Complete(ch));
      offset = (uint8_t)ADC_ResultCh_GetWord(ch);
      
      return offset;
    }
}
    1514:	08 95       	ret

00001516 <ADC_Offset_Get_Signed>:
 *  \param oversampling false for one measurement. true for averaging several measurements.
 *
 *  \return Offset on the selected ADC
 */
int8_t ADC_Offset_Get_Signed(ADC_t * adc, ADC_CH_t *ch, bool oversampling)
{
    1516:	fb 01       	movw	r30, r22
    if (oversampling)
    1518:	44 23       	and	r20, r20
    151a:	c1 f0       	breq	.+48     	; 0x154c <ADC_Offset_Get_Signed+0x36>
    151c:	20 e0       	ldi	r18, 0x00	; 0
    151e:	30 e0       	ldi	r19, 0x00	; 0
    1520:	40 e0       	ldi	r20, 0x00	; 0
int16_t ADC_ResultCh_GetWord_Signed(ADC_CH_t * adc_ch, int8_t signedOffset)
{
  	int16_t answer;

	/* Clear interrupt flag.*/
	adc_ch->INTFLAGS = ADC_CH_CHIF_bm;
    1522:	51 e0       	ldi	r21, 0x01	; 1
      int16_t offset=0;
      uint8_t i = 0;
      for (i=0; i<4; i++)
      {
        /* Do one conversion to find offset. */
        ADC_Ch_Conversion_Start(ch);
    1524:	80 81       	ld	r24, Z
    1526:	80 68       	ori	r24, 0x80	; 128
    1528:	80 83       	st	Z, r24
    
        do{
        }while(!ADC_Ch_Conversion_Complete(ch));
    152a:	83 81       	ldd	r24, Z+3	; 0x03
    152c:	80 ff       	sbrs	r24, 0
    152e:	fd cf       	rjmp	.-6      	; 0x152a <ADC_Offset_Get_Signed+0x14>
int16_t ADC_ResultCh_GetWord_Signed(ADC_CH_t * adc_ch, int8_t signedOffset)
{
  	int16_t answer;

	/* Clear interrupt flag.*/
	adc_ch->INTFLAGS = ADC_CH_CHIF_bm;
    1530:	53 83       	std	Z+3, r21	; 0x03

	/* Return result register contents*/
	answer = adc_ch->RES - signedOffset;
    1532:	84 81       	ldd	r24, Z+4	; 0x04
    1534:	95 81       	ldd	r25, Z+5	; 0x05
        /* Do one conversion to find offset. */
        ADC_Ch_Conversion_Start(ch);
    
        do{
        }while(!ADC_Ch_Conversion_Complete(ch));
        offset += ADC_ResultCh_GetWord_Signed(ch, 0x00);
    1536:	28 0f       	add	r18, r24
    1538:	39 1f       	adc	r19, r25
{
    if (oversampling)
    {
      int16_t offset=0;
      uint8_t i = 0;
      for (i=0; i<4; i++)
    153a:	4f 5f       	subi	r20, 0xFF	; 255
    153c:	44 30       	cpi	r20, 0x04	; 4
    153e:	91 f7       	brne	.-28     	; 0x1524 <ADC_Offset_Get_Signed+0xe>
    
        do{
        }while(!ADC_Ch_Conversion_Complete(ch));
        offset += ADC_ResultCh_GetWord_Signed(ch, 0x00);
      }
      return ((int8_t)(offset/4));
    1540:	c9 01       	movw	r24, r18
    1542:	64 e0       	ldi	r22, 0x04	; 4
    1544:	70 e0       	ldi	r23, 0x00	; 0
    1546:	0e 94 ed 15 	call	0x2bda	; 0x2bda <__divmodhi4>
    154a:	0b c0       	rjmp	.+22     	; 0x1562 <ADC_Offset_Get_Signed+0x4c>
    else
    {        
      int8_t offset=0;
      
      /* Do one conversion to find offset. */
      ADC_Ch_Conversion_Start(ch);
    154c:	80 81       	ld	r24, Z
    154e:	80 68       	ori	r24, 0x80	; 128
    1550:	80 83       	st	Z, r24
  
      do{
      }while(!ADC_Ch_Conversion_Complete(ch));
    1552:	83 81       	ldd	r24, Z+3	; 0x03
    1554:	80 ff       	sbrs	r24, 0
    1556:	fd cf       	rjmp	.-6      	; 0x1552 <ADC_Offset_Get_Signed+0x3c>
int16_t ADC_ResultCh_GetWord_Signed(ADC_CH_t * adc_ch, int8_t signedOffset)
{
  	int16_t answer;

	/* Clear interrupt flag.*/
	adc_ch->INTFLAGS = ADC_CH_CHIF_bm;
    1558:	81 e0       	ldi	r24, 0x01	; 1
    155a:	83 83       	std	Z+3, r24	; 0x03

	/* Return result register contents*/
	answer = adc_ch->RES - signedOffset;
    155c:	84 81       	ldd	r24, Z+4	; 0x04
    155e:	95 81       	ldd	r25, Z+5	; 0x05
      /* Do one conversion to find offset. */
      ADC_Ch_Conversion_Start(ch);
  
      do{
      }while(!ADC_Ch_Conversion_Complete(ch));
      offset = (uint8_t)ADC_ResultCh_GetWord_Signed(ch, 0x00);
    1560:	68 2f       	mov	r22, r24
      
      return offset;
    }
}
    1562:	86 2f       	mov	r24, r22
    1564:	08 95       	ret

00001566 <SP_ReadCalibrationByte>:
uint8_t SP_ReadCalibrationByte( uint8_t index )
{
	uint8_t result;

	/* Load the NVM Command register to read the calibration row. */
	NVM_CMD = NVM_CMD_READ_CALIB_ROW_gc;
    1566:	aa ec       	ldi	r26, 0xCA	; 202
    1568:	b1 e0       	ldi	r27, 0x01	; 1
    156a:	92 e0       	ldi	r25, 0x02	; 2
    156c:	9c 93       	st	X, r25
 	result = pgm_read_byte(index);
    156e:	e8 2f       	mov	r30, r24
    1570:	f0 e0       	ldi	r31, 0x00	; 0
    1572:	e4 91       	lpm	r30, Z+

	/* Clean up NVM Command register. */
 	NVM_CMD = NVM_CMD_NO_OPERATION_gc;
    1574:	1c 92       	st	X, r1

	return result;
}
    1576:	8e 2f       	mov	r24, r30
    1578:	08 95       	ret

0000157a <CCPWrite>:
 *
 *  \param address A pointer to the address to write to.
 *  \param value   The value to put in to the register.
 */
void CCPWrite( volatile uint8_t * address, uint8_t value )
{
    157a:	0f 93       	push	r16
    157c:	df 93       	push	r29
    157e:	cf 93       	push	r28
    1580:	0f 92       	push	r0
    1582:	cd b7       	in	r28, 0x3d	; 61
    1584:	de b7       	in	r29, 0x3e	; 62

	// Restore global interrupt setting from scratch register.
        asm("out  0x3F, R1");

#elif defined __GNUC__
	AVR_ENTER_CRITICAL_REGION( );
    1586:	2f b7       	in	r18, 0x3f	; 63
    1588:	29 83       	std	Y+1, r18	; 0x01
    158a:	f8 94       	cli
	volatile uint8_t * tmpAddr = address;
#ifdef RAMPZ
	RAMPZ = 0;
    158c:	1b be       	out	0x3b, r1	; 59
#endif
	asm volatile(
    158e:	fc 01       	movw	r30, r24
    1590:	08 ed       	ldi	r16, 0xD8	; 216
    1592:	04 bf       	out	0x34, r16	; 52
    1594:	60 83       	st	Z, r22
		:
		: "r" (tmpAddr), "r" (value), "M" (CCP_IOREG_gc), "i" (&CCP)
		: "r16", "r30", "r31"
		);

	AVR_LEAVE_CRITICAL_REGION( );
    1596:	89 81       	ldd	r24, Y+1	; 0x01
    1598:	8f bf       	out	0x3f, r24	; 63
#endif
}
    159a:	0f 90       	pop	r0
    159c:	cf 91       	pop	r28
    159e:	df 91       	pop	r29
    15a0:	0f 91       	pop	r16
    15a2:	08 95       	ret

000015a4 <CLKSYS_XOSC_Config>:
 */
void CLKSYS_XOSC_Config( OSC_FRQRANGE_t freqRange,
                         bool lowPower32kHz,
                         OSC_XOSCSEL_t xoscModeSelection )
{
	OSC.XOSCCTRL = (uint8_t) freqRange |
    15a4:	66 23       	and	r22, r22
    15a6:	11 f4       	brne	.+4      	; 0x15ac <CLKSYS_XOSC_Config+0x8>
    15a8:	90 e0       	ldi	r25, 0x00	; 0
    15aa:	01 c0       	rjmp	.+2      	; 0x15ae <CLKSYS_XOSC_Config+0xa>
    15ac:	90 e2       	ldi	r25, 0x20	; 32
    15ae:	48 2b       	or	r20, r24
    15b0:	94 2b       	or	r25, r20
    15b2:	e0 e5       	ldi	r30, 0x50	; 80
    15b4:	f0 e0       	ldi	r31, 0x00	; 0
    15b6:	92 83       	std	Z+2, r25	; 0x02
	               ( lowPower32kHz ? OSC_X32KLPM_bm : 0 ) |
	               xoscModeSelection;
}
    15b8:	08 95       	ret

000015ba <CLKSYS_PLL_Config>:
 *                      from 1 to 31, inclusive.
 */
void CLKSYS_PLL_Config( OSC_PLLSRC_t clockSource, uint8_t factor )
{
	factor &= OSC_PLLFAC_gm;
	OSC.PLLCTRL = (uint8_t) clockSource | ( factor << OSC_PLLFAC_gp );
    15ba:	6f 71       	andi	r22, 0x1F	; 31
    15bc:	68 2b       	or	r22, r24
    15be:	e0 e5       	ldi	r30, 0x50	; 80
    15c0:	f0 e0       	ldi	r31, 0x00	; 0
    15c2:	65 83       	std	Z+5, r22	; 0x05
}
    15c4:	08 95       	ret

000015c6 <CLKSYS_Disable>:
 *
 *  \return  Non-zero if oscillator was disabled successfully.
 */
uint8_t CLKSYS_Disable( uint8_t oscSel )
{
	OSC.CTRL &= ~oscSel;
    15c6:	e0 e5       	ldi	r30, 0x50	; 80
    15c8:	f0 e0       	ldi	r31, 0x00	; 0
    15ca:	20 81       	ld	r18, Z
    15cc:	98 2f       	mov	r25, r24
    15ce:	90 95       	com	r25
    15d0:	92 23       	and	r25, r18
    15d2:	90 83       	st	Z, r25
	uint8_t clkEnabled = OSC.CTRL & oscSel;
    15d4:	90 81       	ld	r25, Z
	return clkEnabled;
}
    15d6:	89 23       	and	r24, r25
    15d8:	08 95       	ret

000015da <CLKSYS_Prescalers_Config>:
 *  \param  PSBCfactor  Prescaler B and C division factor, in the combination
 *                      of (1,1), (1,2), (4,1) or (2,2).
 */
void CLKSYS_Prescalers_Config( CLK_PSADIV_t PSAfactor,
                               CLK_PSBCDIV_t PSBCfactor )
{
    15da:	0f 93       	push	r16
    15dc:	df 93       	push	r29
    15de:	cf 93       	push	r28
    15e0:	0f 92       	push	r0
    15e2:	cd b7       	in	r28, 0x3d	; 61
    15e4:	de b7       	in	r29, 0x3e	; 62

	// Restore global interrupt setting from scratch register.
        asm("out  0x3F, R1");

#elif defined __GNUC__
	AVR_ENTER_CRITICAL_REGION( );
    15e6:	9f b7       	in	r25, 0x3f	; 63
    15e8:	99 83       	std	Y+1, r25	; 0x01
    15ea:	f8 94       	cli
	volatile uint8_t * tmpAddr = address;
#ifdef RAMPZ
	RAMPZ = 0;
    15ec:	1b be       	out	0x3b, r1	; 59
#endif
	asm volatile(
    15ee:	68 2b       	or	r22, r24
    15f0:	81 e4       	ldi	r24, 0x41	; 65
    15f2:	90 e0       	ldi	r25, 0x00	; 0
    15f4:	fc 01       	movw	r30, r24
    15f6:	08 ed       	ldi	r16, 0xD8	; 216
    15f8:	04 bf       	out	0x34, r16	; 52
    15fa:	60 83       	st	Z, r22
		:
		: "r" (tmpAddr), "r" (value), "M" (CCP_IOREG_gc), "i" (&CCP)
		: "r16", "r30", "r31"
		);

	AVR_LEAVE_CRITICAL_REGION( );
    15fc:	89 81       	ldd	r24, Y+1	; 0x01
    15fe:	8f bf       	out	0x3f, r24	; 63
void CLKSYS_Prescalers_Config( CLK_PSADIV_t PSAfactor,
                               CLK_PSBCDIV_t PSBCfactor )
{
	uint8_t PSconfig = (uint8_t) PSAfactor | PSBCfactor;
	CCPWrite( &CLK.PSCTRL, PSconfig );
}
    1600:	0f 90       	pop	r0
    1602:	cf 91       	pop	r28
    1604:	df 91       	pop	r29
    1606:	0f 91       	pop	r16
    1608:	08 95       	ret

0000160a <CLKSYS_Main_ClockSource_Select>:
 *                       prescaler block.
 *
 *  \return  Non-zero if change was successful.
 */
uint8_t CLKSYS_Main_ClockSource_Select( CLK_SCLKSEL_t clockSource )
{
    160a:	0f 93       	push	r16
    160c:	df 93       	push	r29
    160e:	cf 93       	push	r28
    1610:	0f 92       	push	r0
    1612:	cd b7       	in	r28, 0x3d	; 61
    1614:	de b7       	in	r29, 0x3e	; 62
	uint8_t clkCtrl = ( CLK.CTRL & ~CLK_SCLKSEL_gm ) | clockSource;
    1616:	20 91 40 00 	lds	r18, 0x0040

	// Restore global interrupt setting from scratch register.
        asm("out  0x3F, R1");

#elif defined __GNUC__
	AVR_ENTER_CRITICAL_REGION( );
    161a:	9f b7       	in	r25, 0x3f	; 63
    161c:	99 83       	std	Y+1, r25	; 0x01
    161e:	f8 94       	cli
	volatile uint8_t * tmpAddr = address;
#ifdef RAMPZ
	RAMPZ = 0;
    1620:	1b be       	out	0x3b, r1	; 59
#endif
	asm volatile(
    1622:	a0 e4       	ldi	r26, 0x40	; 64
    1624:	b0 e0       	ldi	r27, 0x00	; 0
    1626:	28 7f       	andi	r18, 0xF8	; 248
    1628:	28 2b       	or	r18, r24
    162a:	fd 01       	movw	r30, r26
    162c:	08 ed       	ldi	r16, 0xD8	; 216
    162e:	04 bf       	out	0x34, r16	; 52
    1630:	20 83       	st	Z, r18
		:
		: "r" (tmpAddr), "r" (value), "M" (CCP_IOREG_gc), "i" (&CCP)
		: "r16", "r30", "r31"
		);

	AVR_LEAVE_CRITICAL_REGION( );
    1632:	99 81       	ldd	r25, Y+1	; 0x01
    1634:	9f bf       	out	0x3f, r25	; 63
 */
uint8_t CLKSYS_Main_ClockSource_Select( CLK_SCLKSEL_t clockSource )
{
	uint8_t clkCtrl = ( CLK.CTRL & ~CLK_SCLKSEL_gm ) | clockSource;
	CCPWrite( &CLK.CTRL, clkCtrl );
	clkCtrl = ( CLK.CTRL & clockSource );
    1636:	9c 91       	ld	r25, X
	return clkCtrl;
}
    1638:	89 23       	and	r24, r25
    163a:	0f 90       	pop	r0
    163c:	cf 91       	pop	r28
    163e:	df 91       	pop	r29
    1640:	0f 91       	pop	r16
    1642:	08 95       	ret

00001644 <CLKSYS_RTC_ClockSource_Enable>:
 *
 *  \param  clockSource  Clock source to use for the RTC.
 */
void CLKSYS_RTC_ClockSource_Enable( CLK_RTCSRC_t clockSource )
{
	CLK.RTCCTRL = ( CLK.RTCCTRL & ~CLK_RTCSRC_gm ) |
    1644:	e0 e4       	ldi	r30, 0x40	; 64
    1646:	f0 e0       	ldi	r31, 0x00	; 0
    1648:	93 81       	ldd	r25, Z+3	; 0x03
    164a:	91 7f       	andi	r25, 0xF1	; 241
    164c:	91 60       	ori	r25, 0x01	; 1
    164e:	98 2b       	or	r25, r24
    1650:	93 83       	std	Z+3, r25	; 0x03
	              clockSource |
	              CLK_RTCEN_bm;
}
    1652:	08 95       	ret

00001654 <CLKSYS_AutoCalibration_Enable>:
 *  \param  clkSource    Clock source to calibrate, either OSC_RC2MCREF_bm or
 *                       OSC_RC32MCREF_bm.
 *  \param  extReference True if external crystal should be used as reference.
 */
void CLKSYS_AutoCalibration_Enable( uint8_t clkSource, bool extReference )
{
    1654:	28 2f       	mov	r18, r24
	OSC.DFLLCTRL = ( OSC.DFLLCTRL & ~clkSource ) |
    1656:	30 91 56 00 	lds	r19, 0x0056
    165a:	66 23       	and	r22, r22
    165c:	11 f0       	breq	.+4      	; 0x1662 <CLKSYS_AutoCalibration_Enable+0xe>
    165e:	98 2f       	mov	r25, r24
    1660:	01 c0       	rjmp	.+2      	; 0x1664 <CLKSYS_AutoCalibration_Enable+0x10>
    1662:	90 e0       	ldi	r25, 0x00	; 0
    1664:	82 2f       	mov	r24, r18
    1666:	80 95       	com	r24
    1668:	83 23       	and	r24, r19
    166a:	98 2b       	or	r25, r24
    166c:	e0 e5       	ldi	r30, 0x50	; 80
    166e:	f0 e0       	ldi	r31, 0x00	; 0
    1670:	96 83       	std	Z+6, r25	; 0x06
	               ( extReference ? clkSource : 0 );
	if (clkSource == OSC_RC2MCREF_bm) {
    1672:	21 30       	cpi	r18, 0x01	; 1
    1674:	31 f4       	brne	.+12     	; 0x1682 <CLKSYS_AutoCalibration_Enable+0x2e>
		DFLLRC2M.CTRL |= DFLL_ENABLE_bm;
    1676:	80 91 68 00 	lds	r24, 0x0068
    167a:	81 60       	ori	r24, 0x01	; 1
    167c:	80 93 68 00 	sts	0x0068, r24
    1680:	08 95       	ret
	} else if (clkSource == OSC_RC32MCREF_bm) {
    1682:	22 30       	cpi	r18, 0x02	; 2
    1684:	29 f4       	brne	.+10     	; 0x1690 <CLKSYS_AutoCalibration_Enable+0x3c>
		DFLLRC32M.CTRL |= DFLL_ENABLE_bm;
    1686:	80 91 60 00 	lds	r24, 0x0060
    168a:	81 60       	ori	r24, 0x01	; 1
    168c:	80 93 60 00 	sts	0x0060, r24
    1690:	08 95       	ret

00001692 <CLKSYS_XOSC_FailureDetection_Enable>:
 *  XOSCFD _will_ issue the XOSCF Non-maskable Interrupt (NMI) regardless of
 *  any interrupt priorities and settings. Therefore, make sure that a handler
 *  is implemented for the XOSCF NMI when you enable it.
 */
void CLKSYS_XOSC_FailureDetection_Enable( void )
{
    1692:	0f 93       	push	r16
    1694:	df 93       	push	r29
    1696:	cf 93       	push	r28
    1698:	0f 92       	push	r0
    169a:	cd b7       	in	r28, 0x3d	; 61
    169c:	de b7       	in	r29, 0x3e	; 62

	// Restore global interrupt setting from scratch register.
        asm("out  0x3F, R1");

#elif defined __GNUC__
	AVR_ENTER_CRITICAL_REGION( );
    169e:	8f b7       	in	r24, 0x3f	; 63
    16a0:	89 83       	std	Y+1, r24	; 0x01
    16a2:	f8 94       	cli
	volatile uint8_t * tmpAddr = address;
#ifdef RAMPZ
	RAMPZ = 0;
    16a4:	1b be       	out	0x3b, r1	; 59
#endif
	asm volatile(
    16a6:	23 e0       	ldi	r18, 0x03	; 3
    16a8:	83 e5       	ldi	r24, 0x53	; 83
    16aa:	90 e0       	ldi	r25, 0x00	; 0
    16ac:	fc 01       	movw	r30, r24
    16ae:	08 ed       	ldi	r16, 0xD8	; 216
    16b0:	04 bf       	out	0x34, r16	; 52
    16b2:	20 83       	st	Z, r18
		:
		: "r" (tmpAddr), "r" (value), "M" (CCP_IOREG_gc), "i" (&CCP)
		: "r16", "r30", "r31"
		);

	AVR_LEAVE_CRITICAL_REGION( );
    16b4:	89 81       	ldd	r24, Y+1	; 0x01
    16b6:	8f bf       	out	0x3f, r24	; 63
 *  is implemented for the XOSCF NMI when you enable it.
 */
void CLKSYS_XOSC_FailureDetection_Enable( void )
{
	CCPWrite( &OSC.XOSCFAIL, ( OSC_XOSCFDIF_bm | OSC_XOSCFDEN_bm ) );
}
    16b8:	0f 90       	pop	r0
    16ba:	cf 91       	pop	r28
    16bc:	df 91       	pop	r29
    16be:	0f 91       	pop	r16
    16c0:	08 95       	ret

000016c2 <CLKSYS_Configuration_Lock>:
 *  This will lock the configuration until the next reset, or until the
 *  External Oscillator Failure Detections (XOSCFD) feature detects a failure
 *  and switches to internal 2MHz RC oscillator.
 */
void CLKSYS_Configuration_Lock( void )
{
    16c2:	0f 93       	push	r16
    16c4:	df 93       	push	r29
    16c6:	cf 93       	push	r28
    16c8:	0f 92       	push	r0
    16ca:	cd b7       	in	r28, 0x3d	; 61
    16cc:	de b7       	in	r29, 0x3e	; 62

	// Restore global interrupt setting from scratch register.
        asm("out  0x3F, R1");

#elif defined __GNUC__
	AVR_ENTER_CRITICAL_REGION( );
    16ce:	8f b7       	in	r24, 0x3f	; 63
    16d0:	89 83       	std	Y+1, r24	; 0x01
    16d2:	f8 94       	cli
	volatile uint8_t * tmpAddr = address;
#ifdef RAMPZ
	RAMPZ = 0;
    16d4:	1b be       	out	0x3b, r1	; 59
#endif
	asm volatile(
    16d6:	21 e0       	ldi	r18, 0x01	; 1
    16d8:	82 e4       	ldi	r24, 0x42	; 66
    16da:	90 e0       	ldi	r25, 0x00	; 0
    16dc:	fc 01       	movw	r30, r24
    16de:	08 ed       	ldi	r16, 0xD8	; 216
    16e0:	04 bf       	out	0x34, r16	; 52
    16e2:	20 83       	st	Z, r18
		:
		: "r" (tmpAddr), "r" (value), "M" (CCP_IOREG_gc), "i" (&CCP)
		: "r16", "r30", "r31"
		);

	AVR_LEAVE_CRITICAL_REGION( );
    16e4:	89 81       	ldd	r24, Y+1	; 0x01
    16e6:	8f bf       	out	0x3f, r24	; 63
 *  and switches to internal 2MHz RC oscillator.
 */
void CLKSYS_Configuration_Lock( void )
{
	CCPWrite( &CLK.LOCK, CLK_LOCK_bm );
}
    16e8:	0f 90       	pop	r0
    16ea:	cf 91       	pop	r28
    16ec:	df 91       	pop	r29
    16ee:	0f 91       	pop	r16
    16f0:	08 95       	ret

000016f2 <EEPROM_WriteByte>:
 *  \param  pageAddr  EEPROM Page address, between 0 and EEPROM_SIZE/EEPROM_PAGESIZE
 *  \param  byteAddr  EEPROM Byte address, between 0 and EEPROM_PAGESIZE.
 *  \param  value     Byte value to write to EEPROM.
 */
void EEPROM_WriteByte( uint8_t pageAddr, uint8_t byteAddr, uint8_t value )
{
    16f2:	98 2f       	mov	r25, r24
 */
void EEPROM_WaitForNVM( void )
{
	do {
		/* Block execution while waiting for the NVM to be ready. */
	} while ((NVM.STATUS & NVM_NVMBUSY_bm) == NVM_NVMBUSY_bm);
    16f4:	80 91 cf 01 	lds	r24, 0x01CF
    16f8:	87 fd       	sbrc	r24, 7
    16fa:	fc cf       	rjmp	.-8      	; 0x16f4 <EEPROM_WriteByte+0x2>
{
	/* Wait until NVM is not busy. */
	EEPROM_WaitForNVM();

	/* Flush EEPROM page buffer if necessary. */
	if ((NVM.STATUS & NVM_EELOAD_bm) != 0) {
    16fc:	80 91 cf 01 	lds	r24, 0x01CF
    1700:	81 ff       	sbrs	r24, 1
    1702:	12 c0       	rjmp	.+36     	; 0x1728 <EEPROM_WriteByte+0x36>
		NVM.CMD = NVM_CMD_ERASE_EEPROM_BUFFER_gc;
    1704:	86 e3       	ldi	r24, 0x36	; 54
    1706:	e0 ec       	ldi	r30, 0xC0	; 192
    1708:	f1 e0       	ldi	r31, 0x01	; 1
    170a:	82 87       	std	Z+10, r24	; 0x0a
		NVM_EXEC();
    170c:	ef 93       	push	r30
    170e:	ff 93       	push	r31
    1710:	0f 93       	push	r16
    1712:	2f 93       	push	r18
    1714:	eb ec       	ldi	r30, 0xCB	; 203
    1716:	f1 e0       	ldi	r31, 0x01	; 1
    1718:	08 ed       	ldi	r16, 0xD8	; 216
    171a:	21 e0       	ldi	r18, 0x01	; 1
    171c:	04 bf       	out	0x34, r16	; 52
    171e:	20 83       	st	Z, r18
    1720:	2f 91       	pop	r18
    1722:	0f 91       	pop	r16
    1724:	ff 91       	pop	r31
    1726:	ef 91       	pop	r30
{
	/*  Flush buffer to make sure no unintetional data is written and load
	 *  the "Page Load" command into the command register.
	 */
	EEPROM_FlushBuffer();
	NVM.CMD = NVM_CMD_LOAD_EEPROM_BUFFER_gc;
    1728:	e0 ec       	ldi	r30, 0xC0	; 192
    172a:	f1 e0       	ldi	r31, 0x01	; 1
    172c:	83 e3       	ldi	r24, 0x33	; 51
    172e:	82 87       	std	Z+10, r24	; 0x0a

	/* Calculate address */
	uint16_t address = (uint16_t)(pageAddr*EEPROM_PAGESIZE)
	                            |(byteAddr & (EEPROM_PAGESIZE-1));
    1730:	26 2f       	mov	r18, r22
    1732:	30 e0       	ldi	r19, 0x00	; 0
    1734:	2f 71       	andi	r18, 0x1F	; 31
    1736:	30 70       	andi	r19, 0x00	; 0
    1738:	89 2f       	mov	r24, r25
    173a:	90 e0       	ldi	r25, 0x00	; 0
    173c:	55 e0       	ldi	r21, 0x05	; 5
    173e:	88 0f       	add	r24, r24
    1740:	99 1f       	adc	r25, r25
    1742:	5a 95       	dec	r21
    1744:	e1 f7       	brne	.-8      	; 0x173e <EEPROM_WriteByte+0x4c>
    1746:	28 2b       	or	r18, r24
    1748:	39 2b       	or	r19, r25

	/* Set address to write to. */
	NVM.ADDR0 = address & 0xFF;
    174a:	20 93 c0 01 	sts	0x01C0, r18
	NVM.ADDR1 = (address >> 8) & 0x1F;
    174e:	83 2f       	mov	r24, r19
    1750:	8f 71       	andi	r24, 0x1F	; 31
    1752:	81 83       	std	Z+1, r24	; 0x01
	NVM.ADDR2 = 0x00;
    1754:	12 82       	std	Z+2, r1	; 0x02

	/* Load data to write, which triggers the loading of EEPROM page buffer. */
	NVM.DATA0 = value;
    1756:	44 83       	std	Z+4, r20	; 0x04

	/*  Issue EEPROM Atomic Write (Erase&Write) command. Load command, write
	 *  the protection signature and execute command.
	 */
	NVM.CMD = NVM_CMD_ERASE_WRITE_EEPROM_PAGE_gc;
    1758:	85 e3       	ldi	r24, 0x35	; 53
    175a:	82 87       	std	Z+10, r24	; 0x0a
	NVM_EXEC();
    175c:	ef 93       	push	r30
    175e:	ff 93       	push	r31
    1760:	0f 93       	push	r16
    1762:	2f 93       	push	r18
    1764:	eb ec       	ldi	r30, 0xCB	; 203
    1766:	f1 e0       	ldi	r31, 0x01	; 1
    1768:	08 ed       	ldi	r16, 0xD8	; 216
    176a:	21 e0       	ldi	r18, 0x01	; 1
    176c:	04 bf       	out	0x34, r16	; 52
    176e:	20 83       	st	Z, r18
    1770:	2f 91       	pop	r18
    1772:	0f 91       	pop	r16
    1774:	ff 91       	pop	r31
    1776:	ef 91       	pop	r30
}
    1778:	08 95       	ret

0000177a <EEPROM_ReadByte>:
 *  \param  byteAddr  EEPROM Byte address, between 0 and EEPROM_PAGESIZE.
 *
 *  \return  Byte value read from EEPROM.
 */
uint8_t EEPROM_ReadByte( uint8_t pageAddr, uint8_t byteAddr )
{
    177a:	98 2f       	mov	r25, r24
 */
void EEPROM_WaitForNVM( void )
{
	do {
		/* Block execution while waiting for the NVM to be ready. */
	} while ((NVM.STATUS & NVM_NVMBUSY_bm) == NVM_NVMBUSY_bm);
    177c:	e0 ec       	ldi	r30, 0xC0	; 192
    177e:	f1 e0       	ldi	r31, 0x01	; 1
    1780:	80 91 cf 01 	lds	r24, 0x01CF
    1784:	87 fd       	sbrc	r24, 7
    1786:	fa cf       	rjmp	.-12     	; 0x177c <EEPROM_ReadByte+0x2>
	/* Wait until NVM is not busy. */
	EEPROM_WaitForNVM();

	/* Calculate address */
	uint16_t address = (uint16_t)(pageAddr*EEPROM_PAGESIZE)
	                            |(byteAddr & (EEPROM_PAGESIZE-1));
    1788:	26 2f       	mov	r18, r22
    178a:	30 e0       	ldi	r19, 0x00	; 0
    178c:	2f 71       	andi	r18, 0x1F	; 31
    178e:	30 70       	andi	r19, 0x00	; 0
    1790:	89 2f       	mov	r24, r25
    1792:	90 e0       	ldi	r25, 0x00	; 0
    1794:	65 e0       	ldi	r22, 0x05	; 5
    1796:	88 0f       	add	r24, r24
    1798:	99 1f       	adc	r25, r25
    179a:	6a 95       	dec	r22
    179c:	e1 f7       	brne	.-8      	; 0x1796 <EEPROM_ReadByte+0x1c>
    179e:	28 2b       	or	r18, r24
    17a0:	39 2b       	or	r19, r25

	/* Set address to read from. */
	NVM.ADDR0 = address & 0xFF;
    17a2:	20 93 c0 01 	sts	0x01C0, r18
	NVM.ADDR1 = (address >> 8) & 0x1F;
    17a6:	83 2f       	mov	r24, r19
    17a8:	8f 71       	andi	r24, 0x1F	; 31
    17aa:	81 83       	std	Z+1, r24	; 0x01
	NVM.ADDR2 = 0x00;
    17ac:	12 82       	std	Z+2, r1	; 0x02

	/* Issue EEPROM Read command. */
	NVM.CMD = NVM_CMD_READ_EEPROM_gc;
    17ae:	86 e0       	ldi	r24, 0x06	; 6
    17b0:	82 87       	std	Z+10, r24	; 0x0a
	NVM_EXEC();
    17b2:	ef 93       	push	r30
    17b4:	ff 93       	push	r31
    17b6:	0f 93       	push	r16
    17b8:	2f 93       	push	r18
    17ba:	eb ec       	ldi	r30, 0xCB	; 203
    17bc:	f1 e0       	ldi	r31, 0x01	; 1
    17be:	08 ed       	ldi	r16, 0xD8	; 216
    17c0:	21 e0       	ldi	r18, 0x01	; 1
    17c2:	04 bf       	out	0x34, r16	; 52
    17c4:	20 83       	st	Z, r18
    17c6:	2f 91       	pop	r18
    17c8:	0f 91       	pop	r16
    17ca:	ff 91       	pop	r31
    17cc:	ef 91       	pop	r30

	return NVM.DATA0;
    17ce:	80 91 c4 01 	lds	r24, 0x01C4
}
    17d2:	08 95       	ret

000017d4 <EEPROM_WaitForNVM>:
 */
void EEPROM_WaitForNVM( void )
{
	do {
		/* Block execution while waiting for the NVM to be ready. */
	} while ((NVM.STATUS & NVM_NVMBUSY_bm) == NVM_NVMBUSY_bm);
    17d4:	80 91 cf 01 	lds	r24, 0x01CF
    17d8:	87 fd       	sbrc	r24, 7
    17da:	fc cf       	rjmp	.-8      	; 0x17d4 <EEPROM_WaitForNVM>
}
    17dc:	08 95       	ret

000017de <EEPROM_FlushBuffer>:
 */
void EEPROM_WaitForNVM( void )
{
	do {
		/* Block execution while waiting for the NVM to be ready. */
	} while ((NVM.STATUS & NVM_NVMBUSY_bm) == NVM_NVMBUSY_bm);
    17de:	80 91 cf 01 	lds	r24, 0x01CF
    17e2:	87 fd       	sbrc	r24, 7
    17e4:	fc cf       	rjmp	.-8      	; 0x17de <EEPROM_FlushBuffer>
{
	/* Wait until NVM is not busy. */
	EEPROM_WaitForNVM();

	/* Flush EEPROM page buffer if necessary. */
	if ((NVM.STATUS & NVM_EELOAD_bm) != 0) {
    17e6:	80 91 cf 01 	lds	r24, 0x01CF
    17ea:	81 ff       	sbrs	r24, 1
    17ec:	12 c0       	rjmp	.+36     	; 0x1812 <EEPROM_FlushBuffer+0x34>
		NVM.CMD = NVM_CMD_ERASE_EEPROM_BUFFER_gc;
    17ee:	86 e3       	ldi	r24, 0x36	; 54
    17f0:	e0 ec       	ldi	r30, 0xC0	; 192
    17f2:	f1 e0       	ldi	r31, 0x01	; 1
    17f4:	82 87       	std	Z+10, r24	; 0x0a
		NVM_EXEC();
    17f6:	ef 93       	push	r30
    17f8:	ff 93       	push	r31
    17fa:	0f 93       	push	r16
    17fc:	2f 93       	push	r18
    17fe:	eb ec       	ldi	r30, 0xCB	; 203
    1800:	f1 e0       	ldi	r31, 0x01	; 1
    1802:	08 ed       	ldi	r16, 0xD8	; 216
    1804:	21 e0       	ldi	r18, 0x01	; 1
    1806:	04 bf       	out	0x34, r16	; 52
    1808:	20 83       	st	Z, r18
    180a:	2f 91       	pop	r18
    180c:	0f 91       	pop	r16
    180e:	ff 91       	pop	r31
    1810:	ef 91       	pop	r30
    1812:	08 95       	ret

00001814 <EEPROM_LoadByte>:
 *
 *  \param  byteAddr  EEPROM Byte address, between 0 and EEPROM_PAGESIZE.
 *  \param  value     Byte value to write to buffer.
 */
void EEPROM_LoadByte( uint8_t byteAddr, uint8_t value )
{
    1814:	98 2f       	mov	r25, r24
 */
void EEPROM_WaitForNVM( void )
{
	do {
		/* Block execution while waiting for the NVM to be ready. */
	} while ((NVM.STATUS & NVM_NVMBUSY_bm) == NVM_NVMBUSY_bm);
    1816:	e0 ec       	ldi	r30, 0xC0	; 192
    1818:	f1 e0       	ldi	r31, 0x01	; 1
    181a:	80 91 cf 01 	lds	r24, 0x01CF
    181e:	87 fd       	sbrc	r24, 7
    1820:	fa cf       	rjmp	.-12     	; 0x1816 <EEPROM_LoadByte+0x2>
 */
void EEPROM_LoadByte( uint8_t byteAddr, uint8_t value )
{
	/* Wait until NVM is not busy and prepare NVM command.*/
	EEPROM_WaitForNVM();
	NVM.CMD = NVM_CMD_LOAD_EEPROM_BUFFER_gc;
    1822:	83 e3       	ldi	r24, 0x33	; 51
    1824:	82 87       	std	Z+10, r24	; 0x0a

	/* Set address. */
	NVM.ADDR0 = byteAddr & 0xFF;
    1826:	90 93 c0 01 	sts	0x01C0, r25
	NVM.ADDR1 = 0x00;
    182a:	11 82       	std	Z+1, r1	; 0x01
	NVM.ADDR2 = 0x00;
    182c:	12 82       	std	Z+2, r1	; 0x02

	/* Set data, which triggers loading of EEPROM page buffer. */
	NVM.DATA0 = value;
    182e:	64 83       	std	Z+4, r22	; 0x04
}
    1830:	08 95       	ret

00001832 <EEPROM_LoadPage>:
 *        EEPROM write page operation.
 *
 *  \param  values   Pointer to SRAM buffer containing an entire page.
 */
void EEPROM_LoadPage( const uint8_t * values )
{
    1832:	dc 01       	movw	r26, r24
 */
void EEPROM_WaitForNVM( void )
{
	do {
		/* Block execution while waiting for the NVM to be ready. */
	} while ((NVM.STATUS & NVM_NVMBUSY_bm) == NVM_NVMBUSY_bm);
    1834:	e0 ec       	ldi	r30, 0xC0	; 192
    1836:	f1 e0       	ldi	r31, 0x01	; 1
    1838:	80 91 cf 01 	lds	r24, 0x01CF
    183c:	87 fd       	sbrc	r24, 7
    183e:	fa cf       	rjmp	.-12     	; 0x1834 <EEPROM_LoadPage+0x2>
{
	uint8_t i = 0;

	/* Wait until NVM is not busy. */
	EEPROM_WaitForNVM();
	NVM.CMD = NVM_CMD_LOAD_EEPROM_BUFFER_gc;
    1840:	83 e3       	ldi	r24, 0x33	; 51
    1842:	82 87       	std	Z+10, r24	; 0x0a

	/*  Set address to zero, as only the lower bits matters. ADDR0 is
	 *  maintained inside the loop below.
	 */
	NVM.ADDR1 = 0x00;
    1844:	11 82       	std	Z+1, r1	; 0x01
	NVM.ADDR2 = 0x00;
    1846:	12 82       	std	Z+2, r1	; 0x02
    1848:	90 e0       	ldi	r25, 0x00	; 0

	/* Load multible bytes into page buffer. */
	for (i = 0; i < EEPROM_PAGESIZE; ++i) {
		NVM.ADDR0 = i;
    184a:	90 93 c0 01 	sts	0x01C0, r25
		NVM.DATA0 = *values;
    184e:	8d 91       	ld	r24, X+
    1850:	84 83       	std	Z+4, r24	; 0x04
	 */
	NVM.ADDR1 = 0x00;
	NVM.ADDR2 = 0x00;

	/* Load multible bytes into page buffer. */
	for (i = 0; i < EEPROM_PAGESIZE; ++i) {
    1852:	9f 5f       	subi	r25, 0xFF	; 255
    1854:	90 32       	cpi	r25, 0x20	; 32
    1856:	c9 f7       	brne	.-14     	; 0x184a <EEPROM_LoadPage+0x18>
		NVM.ADDR0 = i;
		NVM.DATA0 = *values;
		++values;
	}
}
    1858:	08 95       	ret

0000185a <EEPROM_AtomicWritePage>:
 *  locations that have not been loaded will be left untouched in EEPROM.
 *
 *  \param  pageAddr  EEPROM Page address, between 0 and EEPROM_SIZE/EEPROM_PAGESIZE
 */
void EEPROM_AtomicWritePage( uint8_t pageAddr )
{
    185a:	98 2f       	mov	r25, r24
 */
void EEPROM_WaitForNVM( void )
{
	do {
		/* Block execution while waiting for the NVM to be ready. */
	} while ((NVM.STATUS & NVM_NVMBUSY_bm) == NVM_NVMBUSY_bm);
    185c:	e0 ec       	ldi	r30, 0xC0	; 192
    185e:	f1 e0       	ldi	r31, 0x01	; 1
    1860:	80 91 cf 01 	lds	r24, 0x01CF
    1864:	87 fd       	sbrc	r24, 7
    1866:	fa cf       	rjmp	.-12     	; 0x185c <EEPROM_AtomicWritePage+0x2>
{
	/* Wait until NVM is not busy. */
	EEPROM_WaitForNVM();

	/* Calculate page address */
	uint16_t address = (uint16_t)(pageAddr*EEPROM_PAGESIZE);
    1868:	89 2f       	mov	r24, r25
    186a:	90 e0       	ldi	r25, 0x00	; 0
    186c:	75 e0       	ldi	r23, 0x05	; 5
    186e:	88 0f       	add	r24, r24
    1870:	99 1f       	adc	r25, r25
    1872:	7a 95       	dec	r23
    1874:	e1 f7       	brne	.-8      	; 0x186e <EEPROM_AtomicWritePage+0x14>

	/* Set address. */
	NVM.ADDR0 = address & 0xFF;
    1876:	80 93 c0 01 	sts	0x01C0, r24
	NVM.ADDR1 = (address >> 8) & 0x1F;
    187a:	89 2f       	mov	r24, r25
    187c:	8f 71       	andi	r24, 0x1F	; 31
    187e:	81 83       	std	Z+1, r24	; 0x01
	NVM.ADDR2 = 0x00;
    1880:	12 82       	std	Z+2, r1	; 0x02

	/* Issue EEPROM Atomic Write (Erase&Write) command. */
	NVM.CMD = NVM_CMD_ERASE_WRITE_EEPROM_PAGE_gc;
    1882:	85 e3       	ldi	r24, 0x35	; 53
    1884:	82 87       	std	Z+10, r24	; 0x0a
	NVM_EXEC();
    1886:	ef 93       	push	r30
    1888:	ff 93       	push	r31
    188a:	0f 93       	push	r16
    188c:	2f 93       	push	r18
    188e:	eb ec       	ldi	r30, 0xCB	; 203
    1890:	f1 e0       	ldi	r31, 0x01	; 1
    1892:	08 ed       	ldi	r16, 0xD8	; 216
    1894:	21 e0       	ldi	r18, 0x01	; 1
    1896:	04 bf       	out	0x34, r16	; 52
    1898:	20 83       	st	Z, r18
    189a:	2f 91       	pop	r18
    189c:	0f 91       	pop	r16
    189e:	ff 91       	pop	r31
    18a0:	ef 91       	pop	r30
}
    18a2:	08 95       	ret

000018a4 <EEPROM_ErasePage>:
 *  This function erases one EEPROM page, so that every location reads 0xFF.
 *
 *  \param  pageAddr  EEPROM Page address, between 0 and EEPROM_SIZE/EEPROM_PAGESIZE
 */
void EEPROM_ErasePage( uint8_t pageAddr )
{
    18a4:	98 2f       	mov	r25, r24
 */
void EEPROM_WaitForNVM( void )
{
	do {
		/* Block execution while waiting for the NVM to be ready. */
	} while ((NVM.STATUS & NVM_NVMBUSY_bm) == NVM_NVMBUSY_bm);
    18a6:	e0 ec       	ldi	r30, 0xC0	; 192
    18a8:	f1 e0       	ldi	r31, 0x01	; 1
    18aa:	80 91 cf 01 	lds	r24, 0x01CF
    18ae:	87 fd       	sbrc	r24, 7
    18b0:	fa cf       	rjmp	.-12     	; 0x18a6 <EEPROM_ErasePage+0x2>
{
	/* Wait until NVM is not busy. */
	EEPROM_WaitForNVM();

	/* Calculate page address */
	uint16_t address = (uint16_t)(pageAddr*EEPROM_PAGESIZE);
    18b2:	89 2f       	mov	r24, r25
    18b4:	90 e0       	ldi	r25, 0x00	; 0
    18b6:	a5 e0       	ldi	r26, 0x05	; 5
    18b8:	88 0f       	add	r24, r24
    18ba:	99 1f       	adc	r25, r25
    18bc:	aa 95       	dec	r26
    18be:	e1 f7       	brne	.-8      	; 0x18b8 <EEPROM_ErasePage+0x14>

	/* Set address. */
	NVM.ADDR0 = address & 0xFF;
    18c0:	80 93 c0 01 	sts	0x01C0, r24
	NVM.ADDR1 = (address >> 8) & 0x1F;
    18c4:	89 2f       	mov	r24, r25
    18c6:	8f 71       	andi	r24, 0x1F	; 31
    18c8:	81 83       	std	Z+1, r24	; 0x01
	NVM.ADDR2 = 0x00;
    18ca:	12 82       	std	Z+2, r1	; 0x02

	/* Issue EEPROM Erase command. */
	NVM.CMD = NVM_CMD_ERASE_EEPROM_PAGE_gc;
    18cc:	82 e3       	ldi	r24, 0x32	; 50
    18ce:	82 87       	std	Z+10, r24	; 0x0a
	NVM_EXEC();
    18d0:	ef 93       	push	r30
    18d2:	ff 93       	push	r31
    18d4:	0f 93       	push	r16
    18d6:	2f 93       	push	r18
    18d8:	eb ec       	ldi	r30, 0xCB	; 203
    18da:	f1 e0       	ldi	r31, 0x01	; 1
    18dc:	08 ed       	ldi	r16, 0xD8	; 216
    18de:	21 e0       	ldi	r18, 0x01	; 1
    18e0:	04 bf       	out	0x34, r16	; 52
    18e2:	20 83       	st	Z, r18
    18e4:	2f 91       	pop	r18
    18e6:	0f 91       	pop	r16
    18e8:	ff 91       	pop	r31
    18ea:	ef 91       	pop	r30
}
    18ec:	08 95       	ret

000018ee <EEPROM_SplitWritePage>:
 *  before writing.
 *
 *  \param  pageAddr  EEPROM Page address, between 0 and EEPROM_SIZE/EEPROM_PAGESIZE
 */
void EEPROM_SplitWritePage( uint8_t pageAddr )
{
    18ee:	98 2f       	mov	r25, r24
 */
void EEPROM_WaitForNVM( void )
{
	do {
		/* Block execution while waiting for the NVM to be ready. */
	} while ((NVM.STATUS & NVM_NVMBUSY_bm) == NVM_NVMBUSY_bm);
    18f0:	e0 ec       	ldi	r30, 0xC0	; 192
    18f2:	f1 e0       	ldi	r31, 0x01	; 1
    18f4:	80 91 cf 01 	lds	r24, 0x01CF
    18f8:	87 fd       	sbrc	r24, 7
    18fa:	fa cf       	rjmp	.-12     	; 0x18f0 <EEPROM_SplitWritePage+0x2>
{
	/* Wait until NVM is not busy. */
	EEPROM_WaitForNVM();

	/* Calculate page address */
	uint16_t address = (uint16_t)(pageAddr*EEPROM_PAGESIZE);
    18fc:	89 2f       	mov	r24, r25
    18fe:	90 e0       	ldi	r25, 0x00	; 0
    1900:	b5 e0       	ldi	r27, 0x05	; 5
    1902:	88 0f       	add	r24, r24
    1904:	99 1f       	adc	r25, r25
    1906:	ba 95       	dec	r27
    1908:	e1 f7       	brne	.-8      	; 0x1902 <EEPROM_SplitWritePage+0x14>

	/* Set address. */
	NVM.ADDR0 = address & 0xFF;
    190a:	80 93 c0 01 	sts	0x01C0, r24
	NVM.ADDR1 = (address >> 8) & 0x1F;
    190e:	89 2f       	mov	r24, r25
    1910:	8f 71       	andi	r24, 0x1F	; 31
    1912:	81 83       	std	Z+1, r24	; 0x01
	NVM.ADDR2 = 0x00;
    1914:	12 82       	std	Z+2, r1	; 0x02

	/* Issue EEPROM Split Write command. */
	NVM.CMD = NVM_CMD_WRITE_EEPROM_PAGE_gc;
    1916:	84 e3       	ldi	r24, 0x34	; 52
    1918:	82 87       	std	Z+10, r24	; 0x0a
	NVM_EXEC();
    191a:	ef 93       	push	r30
    191c:	ff 93       	push	r31
    191e:	0f 93       	push	r16
    1920:	2f 93       	push	r18
    1922:	eb ec       	ldi	r30, 0xCB	; 203
    1924:	f1 e0       	ldi	r31, 0x01	; 1
    1926:	08 ed       	ldi	r16, 0xD8	; 216
    1928:	21 e0       	ldi	r18, 0x01	; 1
    192a:	04 bf       	out	0x34, r16	; 52
    192c:	20 83       	st	Z, r18
    192e:	2f 91       	pop	r18
    1930:	0f 91       	pop	r16
    1932:	ff 91       	pop	r31
    1934:	ef 91       	pop	r30
}
    1936:	08 95       	ret

00001938 <EEPROM_EraseAll>:
 */
void EEPROM_WaitForNVM( void )
{
	do {
		/* Block execution while waiting for the NVM to be ready. */
	} while ((NVM.STATUS & NVM_NVMBUSY_bm) == NVM_NVMBUSY_bm);
    1938:	80 91 cf 01 	lds	r24, 0x01CF
    193c:	87 fd       	sbrc	r24, 7
    193e:	fc cf       	rjmp	.-8      	; 0x1938 <EEPROM_EraseAll>
{
	/* Wait until NVM is not busy. */
	EEPROM_WaitForNVM();

	/* Issue EEPROM Erase All command. */
	NVM.CMD = NVM_CMD_ERASE_EEPROM_gc;
    1940:	80 e3       	ldi	r24, 0x30	; 48
    1942:	e0 ec       	ldi	r30, 0xC0	; 192
    1944:	f1 e0       	ldi	r31, 0x01	; 1
    1946:	82 87       	std	Z+10, r24	; 0x0a
	NVM_EXEC();
    1948:	ef 93       	push	r30
    194a:	ff 93       	push	r31
    194c:	0f 93       	push	r16
    194e:	2f 93       	push	r18
    1950:	eb ec       	ldi	r30, 0xCB	; 203
    1952:	f1 e0       	ldi	r31, 0x01	; 1
    1954:	08 ed       	ldi	r16, 0xD8	; 216
    1956:	21 e0       	ldi	r18, 0x01	; 1
    1958:	04 bf       	out	0x34, r16	; 52
    195a:	20 83       	st	Z, r18
    195c:	2f 91       	pop	r18
    195e:	0f 91       	pop	r16
    1960:	ff 91       	pop	r31
    1962:	ef 91       	pop	r30
}
    1964:	08 95       	ret

00001966 <PMIC_SetVectorLocationToBoot>:
 *  Change Protection register before writing the CTRL register. Interrupts are
 *  automatically ignored during the change enable period.
 */
void PMIC_SetVectorLocationToBoot( void )
{
	uint8_t temp = PMIC.CTRL | PMIC_IVSEL_bm;
    1966:	e0 ea       	ldi	r30, 0xA0	; 160
    1968:	f0 e0       	ldi	r31, 0x00	; 0
    196a:	82 81       	ldd	r24, Z+2	; 0x02
    196c:	80 64       	ori	r24, 0x40	; 64
	CCP = CCP_IOREG_gc;
    196e:	98 ed       	ldi	r25, 0xD8	; 216
    1970:	94 bf       	out	0x34, r25	; 52
	PMIC.CTRL = temp;
    1972:	82 83       	std	Z+2, r24	; 0x02
}
    1974:	08 95       	ret

00001976 <PMIC_SetVectorLocationToApplication>:
 *  Change Protection register before writing the CTRL register. Interrupts are
 *  automatically ignored during the change enable period.
 */
void PMIC_SetVectorLocationToApplication( void )
{
	uint8_t temp = PMIC.CTRL & ~PMIC_IVSEL_bm;
    1976:	e0 ea       	ldi	r30, 0xA0	; 160
    1978:	f0 e0       	ldi	r31, 0x00	; 0
    197a:	82 81       	ldd	r24, Z+2	; 0x02
    197c:	8f 7b       	andi	r24, 0xBF	; 191
	CCP = CCP_IOREG_gc;
    197e:	98 ed       	ldi	r25, 0xD8	; 216
    1980:	94 bf       	out	0x34, r25	; 52
	PMIC.CTRL = temp;
    1982:	82 83       	std	Z+2, r24	; 0x02
}
    1984:	08 95       	ret

00001986 <PORT_ConfigureInterrupt0>:
 *  \param pinMask    A mask that selects the pins to associate with port interrupt 0.
 */
void PORT_ConfigureInterrupt0( PORT_t * port,
                               PORT_INT0LVL_t intLevel,
                               uint8_t pinMask )
{
    1986:	fc 01       	movw	r30, r24
	port->INTCTRL = ( port->INTCTRL & ~PORT_INT0LVL_gm ) | intLevel;
    1988:	81 85       	ldd	r24, Z+9	; 0x09
    198a:	8c 7f       	andi	r24, 0xFC	; 252
    198c:	86 2b       	or	r24, r22
    198e:	81 87       	std	Z+9, r24	; 0x09
	port->INT0MASK = pinMask;
    1990:	42 87       	std	Z+10, r20	; 0x0a
}
    1992:	08 95       	ret

00001994 <PORT_ConfigureInterrupt1>:
 *  \param pinMask    A mask that selects the pins to associate with port interrupt 1.
 */
void PORT_ConfigureInterrupt1( PORT_t * port,
                               PORT_INT1LVL_t intLevel,
                               uint8_t pinMask )
{
    1994:	fc 01       	movw	r30, r24
	port->INTCTRL = ( port->INTCTRL & ~PORT_INT1LVL_gm ) | intLevel;
    1996:	81 85       	ldd	r24, Z+9	; 0x09
    1998:	83 7f       	andi	r24, 0xF3	; 243
    199a:	86 2b       	or	r24, r22
    199c:	81 87       	std	Z+9, r24	; 0x09
	port->INT1MASK = pinMask;
    199e:	43 87       	std	Z+11, r20	; 0x0b
}
    19a0:	08 95       	ret

000019a2 <PORT_ConfigurePins>:
                         uint8_t pinMask,
                         uint8_t slewRateEnable,
                         uint8_t invertEnable,
                         PORT_OPC_t opc,
                         PORT_ISC_t isc)
{
    19a2:	ef 92       	push	r14
    19a4:	0f 93       	push	r16
    19a6:	fc 01       	movw	r30, r24
	/* Build pin control register value. */
	uint8_t temp = (uint8_t) opc |
	               isc |
	               (slewRateEnable ? PORT_SRLEN_bm : 0) |
	               (invertEnable ? PORT_INVEN_bm : 0);
    19a8:	44 23       	and	r20, r20
    19aa:	11 f4       	brne	.+4      	; 0x19b0 <PORT_ConfigurePins+0xe>
    19ac:	90 e0       	ldi	r25, 0x00	; 0
    19ae:	01 c0       	rjmp	.+2      	; 0x19b2 <PORT_ConfigurePins+0x10>
    19b0:	90 e8       	ldi	r25, 0x80	; 128
    19b2:	22 23       	and	r18, r18
    19b4:	11 f4       	brne	.+4      	; 0x19ba <PORT_ConfigurePins+0x18>
    19b6:	80 e0       	ldi	r24, 0x00	; 0
    19b8:	01 c0       	rjmp	.+2      	; 0x19bc <PORT_ConfigurePins+0x1a>
    19ba:	80 e4       	ldi	r24, 0x40	; 64
    19bc:	e0 2a       	or	r14, r16
    19be:	9e 29       	or	r25, r14
    19c0:	98 2b       	or	r25, r24

	/* Configure the pins in one atomic operation. */

	/* Save status register. */
	uint8_t sreg = SREG;
    19c2:	8f b7       	in	r24, 0x3f	; 63

	cli();
    19c4:	f8 94       	cli
	PORTCFG.MPCMASK = pinMask;
    19c6:	60 93 b0 00 	sts	0x00B0, r22
	port->PIN0CTRL = temp;
    19ca:	90 8b       	std	Z+16, r25	; 0x10

	/* Restore status register. */
	SREG = sreg;
    19cc:	8f bf       	out	0x3f, r24	; 63
}
    19ce:	0f 91       	pop	r16
    19d0:	ef 90       	pop	r14
    19d2:	08 95       	ret

000019d4 <PORT_MapVirtualPort0>:
 *
 *  \param realPort Selects the real port to map to virtual port 0.
 */
void PORT_MapVirtualPort0(PORTCFG_VP0MAP_t realPort)
{
	PORTCFG.VPCTRLA = ( PORTCFG.VPCTRLA & ~PORTCFG_VP0MAP_gm ) | realPort;
    19d4:	e0 eb       	ldi	r30, 0xB0	; 176
    19d6:	f0 e0       	ldi	r31, 0x00	; 0
    19d8:	92 81       	ldd	r25, Z+2	; 0x02
    19da:	90 7f       	andi	r25, 0xF0	; 240
    19dc:	98 2b       	or	r25, r24
    19de:	92 83       	std	Z+2, r25	; 0x02
}
    19e0:	08 95       	ret

000019e2 <PORT_MapVirtualPort1>:
 *
 *  \param realPort Selects the real port to map to virtual port 1.
 */
void PORT_MapVirtualPort1(PORTCFG_VP1MAP_t realPort)
{
	PORTCFG.VPCTRLA = ( PORTCFG.VPCTRLA & ~PORTCFG_VP1MAP_gm ) | realPort;
    19e2:	e0 eb       	ldi	r30, 0xB0	; 176
    19e4:	f0 e0       	ldi	r31, 0x00	; 0
    19e6:	92 81       	ldd	r25, Z+2	; 0x02
    19e8:	9f 70       	andi	r25, 0x0F	; 15
    19ea:	98 2b       	or	r25, r24
    19ec:	92 83       	std	Z+2, r25	; 0x02
}
    19ee:	08 95       	ret

000019f0 <PORT_MapVirtualPort2>:
 *
 *  \param realPort Selects the real port to map to virtual port 2.
 */
void PORT_MapVirtualPort2(PORTCFG_VP2MAP_t realPort)
{
	PORTCFG.VPCTRLB = ( PORTCFG.VPCTRLB & ~PORTCFG_VP2MAP_gm ) | realPort;
    19f0:	e0 eb       	ldi	r30, 0xB0	; 176
    19f2:	f0 e0       	ldi	r31, 0x00	; 0
    19f4:	93 81       	ldd	r25, Z+3	; 0x03
    19f6:	90 7f       	andi	r25, 0xF0	; 240
    19f8:	98 2b       	or	r25, r24
    19fa:	93 83       	std	Z+3, r25	; 0x03
}
    19fc:	08 95       	ret

000019fe <PORT_MapVirtualPort3>:
 *
 *  \param realPort Selects the real port to map to virtual port 3.
 */
void PORT_MapVirtualPort3(PORTCFG_VP3MAP_t realPort)
{
	PORTCFG.VPCTRLB = ( PORTCFG.VPCTRLB & ~PORTCFG_VP3MAP_gm ) | realPort;
    19fe:	e0 eb       	ldi	r30, 0xB0	; 176
    1a00:	f0 e0       	ldi	r31, 0x00	; 0
    1a02:	93 81       	ldd	r25, Z+3	; 0x03
    1a04:	9f 70       	andi	r25, 0x0F	; 15
    1a06:	98 2b       	or	r25, r24
    1a08:	93 83       	std	Z+3, r25	; 0x03
}
    1a0a:	08 95       	ret

00001a0c <USART_InterruptDriver_Initialize>:
 *  \param dreIntLevel          Data register empty interrupt level.
 */
void USART_InterruptDriver_Initialize(USART_data_t * usart_data,
                                      USART_t * usart,
                                      USART_DREINTLVL_t dreIntLevel)
{
    1a0c:	fc 01       	movw	r30, r24
	usart_data->usart = usart;
    1a0e:	60 83       	st	Z, r22
    1a10:	71 83       	std	Z+1, r23	; 0x01
	usart_data->dreIntLevel = dreIntLevel;
    1a12:	42 83       	std	Z+2, r20	; 0x02

	usart_data->buffer.RX_Tail = 0;
    1a14:	ec 5b       	subi	r30, 0xBC	; 188
    1a16:	ff 4f       	sbci	r31, 0xFF	; 255
    1a18:	10 82       	st	Z, r1
	usart_data->buffer.RX_Head = 0;
    1a1a:	12 92       	st	-Z, r1
	usart_data->buffer.TX_Tail = 0;
    1a1c:	33 96       	adiw	r30, 0x03	; 3
    1a1e:	10 82       	st	Z, r1
	usart_data->buffer.TX_Head = 0;
    1a20:	12 92       	st	-Z, r1
}
    1a22:	08 95       	ret

00001a24 <USART_InterruptDriver_DreInterruptLevel_Set>:
 *  \param dreIntLevel        Interrupt level of the DRE interrupt.
 */
void USART_InterruptDriver_DreInterruptLevel_Set(USART_data_t * usart_data,
                                                 USART_DREINTLVL_t dreIntLevel)
{
	usart_data->dreIntLevel = dreIntLevel;
    1a24:	fc 01       	movw	r30, r24
    1a26:	62 83       	std	Z+2, r22	; 0x02
}
    1a28:	08 95       	ret

00001a2a <USART_TXBuffer_FreeSpace>:
 *
 *  \retval true      There is data in the receive buffer.
 *  \retval false     The receive buffer is empty.
 */
bool USART_TXBuffer_FreeSpace(USART_data_t * usart_data)
{
    1a2a:	fc 01       	movw	r30, r24
	/* Make copies to make sure that volatile access is specified. */
	uint8_t tempHead = (usart_data->buffer.TX_Head + 1) & USART_TX_BUFFER_MASK;
    1a2c:	eb 5b       	subi	r30, 0xBB	; 187
    1a2e:	ff 4f       	sbci	r31, 0xFF	; 255
    1a30:	81 91       	ld	r24, Z+
	uint8_t tempTail = usart_data->buffer.TX_Tail;
    1a32:	90 81       	ld	r25, Z
    1a34:	20 e0       	ldi	r18, 0x00	; 0
    1a36:	8f 5f       	subi	r24, 0xFF	; 255
    1a38:	8f 71       	andi	r24, 0x1F	; 31
    1a3a:	89 13       	cpse	r24, r25
    1a3c:	21 e0       	ldi	r18, 0x01	; 1

	/* There are data left in the buffer unless Head and Tail are equal. */
	return (tempHead != tempTail);
}
    1a3e:	82 2f       	mov	r24, r18
    1a40:	08 95       	ret

00001a42 <USART_TXBuffer_SendAll>:
 *
 *  \retval true      There is data in the receive buffer.
 *  \retval false     The receive buffer is empty.
 */
bool USART_TXBuffer_SendAll(USART_data_t * usart_data)
{
    1a42:	fc 01       	movw	r30, r24
	/* Make copies to make sure that volatile access is specified. */
	uint8_t tempHead = (usart_data->buffer.TX_Head-1 ) & USART_TX_BUFFER_MASK;
    1a44:	eb 5b       	subi	r30, 0xBB	; 187
    1a46:	ff 4f       	sbci	r31, 0xFF	; 255
    1a48:	81 91       	ld	r24, Z+
	uint8_t tempTail = usart_data->buffer.TX_Tail;
    1a4a:	90 81       	ld	r25, Z
    1a4c:	20 e0       	ldi	r18, 0x00	; 0
    1a4e:	81 50       	subi	r24, 0x01	; 1
    1a50:	8f 71       	andi	r24, 0x1F	; 31
    1a52:	89 13       	cpse	r24, r25
    1a54:	21 e0       	ldi	r18, 0x01	; 1

	/* There are data left in the buffer unless Head and Tail are equal. */
	return (tempHead != tempTail);
}
    1a56:	82 2f       	mov	r24, r18
    1a58:	08 95       	ret

00001a5a <USART_TXBuffer_PutByte>:
 *
 *  \param usart_data The USART_data_t struct instance.
 *  \param data       The data to send.
 */
bool USART_TXBuffer_PutByte(USART_data_t * usart_data, uint8_t data)
{
    1a5a:	cf 93       	push	r28
    1a5c:	df 93       	push	r29
    1a5e:	dc 01       	movw	r26, r24
 *  \retval false     The receive buffer is empty.
 */
bool USART_TXBuffer_FreeSpace(USART_data_t * usart_data)
{
	/* Make copies to make sure that volatile access is specified. */
	uint8_t tempHead = (usart_data->buffer.TX_Head + 1) & USART_TX_BUFFER_MASK;
    1a60:	ec 01       	movw	r28, r24
    1a62:	cb 5b       	subi	r28, 0xBB	; 187
    1a64:	df 4f       	sbci	r29, 0xFF	; 255
    1a66:	88 81       	ld	r24, Y
	uint8_t tempTail = usart_data->buffer.TX_Tail;
    1a68:	aa 5b       	subi	r26, 0xBA	; 186
    1a6a:	bf 4f       	sbci	r27, 0xFF	; 255
    1a6c:	9c 91       	ld	r25, X
    1a6e:	a6 54       	subi	r26, 0x46	; 70
    1a70:	b0 40       	sbci	r27, 0x00	; 0

	/* There are data left in the buffer unless Head and Tail are equal. */
	return (tempHead != tempTail);
    1a72:	20 e0       	ldi	r18, 0x00	; 0
    1a74:	8f 5f       	subi	r24, 0xFF	; 255
    1a76:	8f 71       	andi	r24, 0x1F	; 31
    1a78:	89 17       	cp	r24, r25
    1a7a:	91 f0       	breq	.+36     	; 0x1aa0 <USART_TXBuffer_PutByte+0x46>
    1a7c:	21 e0       	ldi	r18, 0x01	; 1
	TXBuffer_FreeSpace = USART_TXBuffer_FreeSpace(usart_data);


	if(TXBuffer_FreeSpace)
	{
	  	tempTX_Head = TXbufPtr->TX_Head;
    1a7e:	88 81       	ld	r24, Y
	  	TXbufPtr->TX[tempTX_Head]= data;
    1a80:	fd 01       	movw	r30, r26
    1a82:	e8 0f       	add	r30, r24
    1a84:	f1 1d       	adc	r31, r1
    1a86:	63 a3       	std	Z+35, r22	; 0x23
		/* Advance buffer head. */
		TXbufPtr->TX_Head = (tempTX_Head + 1) & USART_TX_BUFFER_MASK;
    1a88:	8f 5f       	subi	r24, 0xFF	; 255
    1a8a:	8f 71       	andi	r24, 0x1F	; 31
    1a8c:	88 83       	st	Y, r24

		/* Enable DRE interrupt. */
		tempCTRLA = usart_data->usart->CTRLA;
    1a8e:	ed 91       	ld	r30, X+
    1a90:	fc 91       	ld	r31, X
    1a92:	11 97       	sbiw	r26, 0x01	; 1
    1a94:	83 81       	ldd	r24, Z+3	; 0x03
		tempCTRLA = (tempCTRLA & ~USART_DREINTLVL_gm) | usart_data->dreIntLevel;
    1a96:	8c 7f       	andi	r24, 0xFC	; 252
    1a98:	12 96       	adiw	r26, 0x02	; 2
    1a9a:	9c 91       	ld	r25, X
    1a9c:	89 2b       	or	r24, r25
		usart_data->usart->CTRLA = tempCTRLA;
    1a9e:	83 83       	std	Z+3, r24	; 0x03
	}
	return TXBuffer_FreeSpace;
}
    1aa0:	82 2f       	mov	r24, r18
    1aa2:	df 91       	pop	r29
    1aa4:	cf 91       	pop	r28
    1aa6:	08 95       	ret

00001aa8 <USART_RXBufferData_Available>:
 *
 *  \retval true      There is data in the receive buffer.
 *  \retval false     The receive buffer is empty.
 */
bool USART_RXBufferData_Available(USART_data_t * usart_data)
{
    1aa8:	fc 01       	movw	r30, r24
	/* Make copies to make sure that volatile access is specified. */
	uint8_t tempHead = usart_data->buffer.RX_Head;
    1aaa:	ed 5b       	subi	r30, 0xBD	; 189
    1aac:	ff 4f       	sbci	r31, 0xFF	; 255
    1aae:	91 91       	ld	r25, Z+
	uint8_t tempTail = usart_data->buffer.RX_Tail;
    1ab0:	80 81       	ld	r24, Z
    1ab2:	20 e0       	ldi	r18, 0x00	; 0
    1ab4:	98 13       	cpse	r25, r24
    1ab6:	21 e0       	ldi	r18, 0x01	; 1

	/* There are data left in the buffer unless Head and Tail are equal. */
	return (tempHead != tempTail);
}
    1ab8:	82 2f       	mov	r24, r18
    1aba:	08 95       	ret

00001abc <USART_RXBuffer_GetByte>:
 *  \param usart_data       The USART_data_t struct instance.
 *
 *  \return         Received data.
 */
uint8_t USART_RXBuffer_GetByte(USART_data_t * usart_data)
{
    1abc:	fc 01       	movw	r30, r24
	USART_Buffer_t * bufPtr;
	uint8_t ans;

	bufPtr = &usart_data->buffer;
	ans = (bufPtr->RX[bufPtr->RX_Tail]);
    1abe:	dc 01       	movw	r26, r24
    1ac0:	ac 5b       	subi	r26, 0xBC	; 188
    1ac2:	bf 4f       	sbci	r27, 0xFF	; 255
    1ac4:	8c 91       	ld	r24, X
    1ac6:	e8 0f       	add	r30, r24
    1ac8:	f1 1d       	adc	r31, r1
    1aca:	83 81       	ldd	r24, Z+3	; 0x03

	/* Advance buffer tail. */
	bufPtr->RX_Tail = (bufPtr->RX_Tail + 1) & USART_RX_BUFFER_MASK;
    1acc:	9c 91       	ld	r25, X
    1ace:	9f 5f       	subi	r25, 0xFF	; 255
    1ad0:	9f 71       	andi	r25, 0x1F	; 31
    1ad2:	9c 93       	st	X, r25

	return ans;
}
    1ad4:	08 95       	ret

00001ad6 <USART_RXComplete>:
 *  Stores received data in RX software buffer.
 *
 *  \param usart_data      The USART_data_t struct instance.
 */
bool USART_RXComplete(USART_data_t * usart_data)
{
    1ad6:	cf 93       	push	r28
    1ad8:	df 93       	push	r29
    1ada:	dc 01       	movw	r26, r24
	USART_Buffer_t * bufPtr;
	bool ans;

	bufPtr = &usart_data->buffer;
	/* Advance buffer head. */
	uint8_t tempRX_Head = (bufPtr->RX_Head + 1) & USART_RX_BUFFER_MASK;
    1adc:	ec 01       	movw	r28, r24
    1ade:	cd 5b       	subi	r28, 0xBD	; 189
    1ae0:	df 4f       	sbci	r29, 0xFF	; 255
    1ae2:	98 81       	ld	r25, Y
    1ae4:	9f 5f       	subi	r25, 0xFF	; 255
    1ae6:	9f 71       	andi	r25, 0x1F	; 31

	/* Check for overflow. */
	uint8_t tempRX_Tail = bufPtr->RX_Tail;
    1ae8:	ac 5b       	subi	r26, 0xBC	; 188
    1aea:	bf 4f       	sbci	r27, 0xFF	; 255
    1aec:	8c 91       	ld	r24, X
    1aee:	a4 54       	subi	r26, 0x44	; 68
    1af0:	b0 40       	sbci	r27, 0x00	; 0
	uint8_t data = usart_data->usart->DATA;
    1af2:	ed 91       	ld	r30, X+
    1af4:	fc 91       	ld	r31, X
    1af6:	11 97       	sbiw	r26, 0x01	; 1
    1af8:	e0 81       	ld	r30, Z

	if (tempRX_Head == tempRX_Tail) {
    1afa:	98 17       	cp	r25, r24
    1afc:	11 f4       	brne	.+4      	; 0x1b02 <USART_RXComplete+0x2c>
    1afe:	80 e0       	ldi	r24, 0x00	; 0
    1b00:	07 c0       	rjmp	.+14     	; 0x1b10 <USART_RXComplete+0x3a>
	  	ans = false;
	}else{
		ans = true;
		usart_data->buffer.RX[usart_data->buffer.RX_Head] = data;
    1b02:	88 81       	ld	r24, Y
    1b04:	a8 0f       	add	r26, r24
    1b06:	b1 1d       	adc	r27, r1
    1b08:	13 96       	adiw	r26, 0x03	; 3
    1b0a:	ec 93       	st	X, r30
		usart_data->buffer.RX_Head = tempRX_Head;
    1b0c:	98 83       	st	Y, r25
    1b0e:	81 e0       	ldi	r24, 0x01	; 1
	}
	return ans;
}
    1b10:	df 91       	pop	r29
    1b12:	cf 91       	pop	r28
    1b14:	08 95       	ret

00001b16 <USART_DataRegEmpty>:
 *  is empty. Argument is pointer to USART (USART_data_t).
 *
 *  \param usart_data      The USART_data_t struct instance.
 */
void USART_DataRegEmpty(USART_data_t * usart_data)
{
    1b16:	cf 93       	push	r28
    1b18:	df 93       	push	r29
    1b1a:	fc 01       	movw	r30, r24
	USART_Buffer_t * bufPtr;
	bufPtr = &usart_data->buffer;

	/* Check if all data is transmitted. */
	uint8_t tempTX_Tail = usart_data->buffer.TX_Tail;
    1b1c:	ec 01       	movw	r28, r24
    1b1e:	ca 5b       	subi	r28, 0xBA	; 186
    1b20:	df 4f       	sbci	r29, 0xFF	; 255
    1b22:	98 81       	ld	r25, Y
	if (bufPtr->TX_Head == tempTX_Tail){
    1b24:	eb 5b       	subi	r30, 0xBB	; 187
    1b26:	ff 4f       	sbci	r31, 0xFF	; 255
    1b28:	80 81       	ld	r24, Z
    1b2a:	e5 54       	subi	r30, 0x45	; 69
    1b2c:	f0 40       	sbci	r31, 0x00	; 0
    1b2e:	a0 81       	ld	r26, Z
    1b30:	b1 81       	ldd	r27, Z+1	; 0x01
    1b32:	89 17       	cp	r24, r25
    1b34:	39 f4       	brne	.+14     	; 0x1b44 <USART_DataRegEmpty+0x2e>
	    /* Disable DRE interrupts. */
		uint8_t tempCTRLA = usart_data->usart->CTRLA;
    1b36:	13 96       	adiw	r26, 0x03	; 3
    1b38:	8c 91       	ld	r24, X
    1b3a:	13 97       	sbiw	r26, 0x03	; 3
		tempCTRLA = (tempCTRLA & ~USART_DREINTLVL_gm) | USART_DREINTLVL_OFF_gc;
    1b3c:	8c 7f       	andi	r24, 0xFC	; 252
		usart_data->usart->CTRLA = tempCTRLA;
    1b3e:	13 96       	adiw	r26, 0x03	; 3
    1b40:	8c 93       	st	X, r24
    1b42:	09 c0       	rjmp	.+18     	; 0x1b56 <USART_DataRegEmpty+0x40>

	}else{
		/* Start transmitting. */
		uint8_t data = bufPtr->TX[usart_data->buffer.TX_Tail];
    1b44:	88 81       	ld	r24, Y
    1b46:	e8 0f       	add	r30, r24
    1b48:	f1 1d       	adc	r31, r1
    1b4a:	83 a1       	ldd	r24, Z+35	; 0x23
		usart_data->usart->DATA = data;
    1b4c:	8c 93       	st	X, r24

		/* Advance buffer tail. */
		bufPtr->TX_Tail = (bufPtr->TX_Tail + 1) & USART_TX_BUFFER_MASK;
    1b4e:	88 81       	ld	r24, Y
    1b50:	8f 5f       	subi	r24, 0xFF	; 255
    1b52:	8f 71       	andi	r24, 0x1F	; 31
    1b54:	88 83       	st	Y, r24
	}
}
    1b56:	df 91       	pop	r29
    1b58:	cf 91       	pop	r28
    1b5a:	08 95       	ret

00001b5c <USART_NineBits_PutChar>:
 *
 *  \param usart      The USART module.
 *  \param data       The data to send.
 */
void USART_NineBits_PutChar(USART_t * usart, uint16_t data)
{
    1b5c:	fc 01       	movw	r30, r24
	if(data & 0x0100) {
    1b5e:	70 ff       	sbrs	r23, 0
    1b60:	03 c0       	rjmp	.+6      	; 0x1b68 <USART_NineBits_PutChar+0xc>
		usart->CTRLB |= USART_TXB8_bm;
    1b62:	84 81       	ldd	r24, Z+4	; 0x04
    1b64:	81 60       	ori	r24, 0x01	; 1
    1b66:	02 c0       	rjmp	.+4      	; 0x1b6c <USART_NineBits_PutChar+0x10>
	}else {
		usart->CTRLB &= ~USART_TXB8_bm;
    1b68:	84 81       	ldd	r24, Z+4	; 0x04
    1b6a:	8e 7f       	andi	r24, 0xFE	; 254
    1b6c:	84 83       	std	Z+4, r24	; 0x04
	}

	usart->DATA = (data & 0x00FF);
    1b6e:	60 83       	st	Z, r22
}
    1b70:	08 95       	ret

00001b72 <USART_NineBits_GetChar>:
 *  \param usart      The USART module.
 *
 *  \retval           Received data.
 */
uint16_t USART_NineBits_GetChar(USART_t * usart)
{
    1b72:	fc 01       	movw	r30, r24
	if(usart->CTRLB & USART_RXB8_bm) {
    1b74:	84 81       	ldd	r24, Z+4	; 0x04
    1b76:	80 ff       	sbrs	r24, 0
    1b78:	05 c0       	rjmp	.+10     	; 0x1b84 <USART_NineBits_GetChar+0x12>
		return(0x0100 | usart->DATA);
    1b7a:	80 81       	ld	r24, Z
    1b7c:	28 2f       	mov	r18, r24
    1b7e:	30 e0       	ldi	r19, 0x00	; 0
    1b80:	31 60       	ori	r19, 0x01	; 1
    1b82:	03 c0       	rjmp	.+6      	; 0x1b8a <USART_NineBits_GetChar+0x18>
	}else {
		return(usart->DATA);
    1b84:	80 81       	ld	r24, Z
    1b86:	28 2f       	mov	r18, r24
    1b88:	30 e0       	ldi	r19, 0x00	; 0
	}
}
    1b8a:	c9 01       	movw	r24, r18
    1b8c:	08 95       	ret

00001b8e <StartAdc>:
** 修订人:
** 修订日期:
**------------------------------------------------------------------------------------------------------------------------
*************************************************************************************************************************/
static void StartAdc(void)
{
    1b8e:	0f 93       	push	r16
    1b90:	1f 93       	push	r17
	/* Enable ADC A with free running mode, VCC reference and signed conversion.*/
	ADC_Enable(&ADCA);
    1b92:	00 e0       	ldi	r16, 0x00	; 0
    1b94:	12 e0       	ldi	r17, 0x02	; 2
    1b96:	f8 01       	movw	r30, r16
    1b98:	80 81       	ld	r24, Z
    1b9a:	81 60       	ori	r24, 0x01	; 1
    1b9c:	80 83       	st	Z, r24

	/* Wait until common mode voltage is stable. Default clock is 2MHz and
	 * therefore below the maximum frequency to use this function. */
	ADC_Wait_32MHz(&ADCA);
    1b9e:	80 e0       	ldi	r24, 0x00	; 0
    1ba0:	92 e0       	ldi	r25, 0x02	; 2
    1ba2:	0e 94 5c 0a 	call	0x14b8	; 0x14b8 <ADC_Wait_32MHz>

	/* Enable free running mode. */
	ADC_FreeRunning_Enable(&ADCA);
    1ba6:	f8 01       	movw	r30, r16
    1ba8:	81 81       	ldd	r24, Z+1	; 0x01
    1baa:	88 60       	ori	r24, 0x08	; 8
    1bac:	81 83       	std	Z+1, r24	; 0x01
}
    1bae:	1f 91       	pop	r17
    1bb0:	0f 91       	pop	r16
    1bb2:	08 95       	ret

00001bb4 <__vector_42>:
	}
}


ISR(ADCB_CH3_vect)
{
    1bb4:	1f 92       	push	r1
    1bb6:	0f 92       	push	r0
    1bb8:	0f b6       	in	r0, 0x3f	; 63
    1bba:	0f 92       	push	r0
    1bbc:	0b b6       	in	r0, 0x3b	; 59
    1bbe:	0f 92       	push	r0
    1bc0:	11 24       	eor	r1, r1
    1bc2:	2f 93       	push	r18
    1bc4:	3f 93       	push	r19
    1bc6:	4f 93       	push	r20
    1bc8:	5f 93       	push	r21
    1bca:	6f 93       	push	r22
    1bcc:	7f 93       	push	r23
    1bce:	8f 93       	push	r24
    1bd0:	9f 93       	push	r25
    1bd2:	af 93       	push	r26
    1bd4:	bf 93       	push	r27
    1bd6:	ef 93       	push	r30
    1bd8:	ff 93       	push	r31
	//PORTD.OUTTGL  = PIN5_bm;

	ADC_FreeRunning_Disable(&ADCB);
    1bda:	e0 e4       	ldi	r30, 0x40	; 64
    1bdc:	f2 e0       	ldi	r31, 0x02	; 2
    1bde:	81 81       	ldd	r24, Z+1	; 0x01
    1be0:	87 7f       	andi	r24, 0xF7	; 247
    1be2:	81 83       	std	Z+1, r24	; 0x01

	ADC_Disable(&ADCB);
    1be4:	80 81       	ld	r24, Z
    1be6:	8e 7f       	andi	r24, 0xFE	; 254
    1be8:	80 83       	st	Z, r24

	/*  Read samples and clear interrupt flags. */
	adc_a_control.adb0 = ADC_ResultCh_GetWord_Signed(&ADCB.CH0, adc_a_control.offset_b);
    1bea:	80 e6       	ldi	r24, 0x60	; 96
    1bec:	92 e0       	ldi	r25, 0x02	; 2
    1bee:	60 91 37 20 	lds	r22, 0x2037
    1bf2:	0e 94 37 0a 	call	0x146e	; 0x146e <ADC_ResultCh_GetWord_Signed>
    1bf6:	80 93 49 20 	sts	0x2049, r24
    1bfa:	90 93 4a 20 	sts	0x204A, r25
	adc_a_control.adb1 = ADC_ResultCh_GetWord_Signed(&ADCB.CH1, adc_a_control.offset_b);
    1bfe:	88 e6       	ldi	r24, 0x68	; 104
    1c00:	92 e0       	ldi	r25, 0x02	; 2
    1c02:	60 91 37 20 	lds	r22, 0x2037
    1c06:	0e 94 37 0a 	call	0x146e	; 0x146e <ADC_ResultCh_GetWord_Signed>
    1c0a:	80 93 4b 20 	sts	0x204B, r24
    1c0e:	90 93 4c 20 	sts	0x204C, r25
	adc_a_control.adb2 = ADC_ResultCh_GetWord_Signed(&ADCB.CH2, adc_a_control.offset_b);
    1c12:	80 e7       	ldi	r24, 0x70	; 112
    1c14:	92 e0       	ldi	r25, 0x02	; 2
    1c16:	60 91 37 20 	lds	r22, 0x2037
    1c1a:	0e 94 37 0a 	call	0x146e	; 0x146e <ADC_ResultCh_GetWord_Signed>
    1c1e:	80 93 4d 20 	sts	0x204D, r24
    1c22:	90 93 4e 20 	sts	0x204E, r25
	adc_a_control.adb3 = ADC_ResultCh_GetWord_Signed(&ADCB.CH3, adc_a_control.offset_b);
    1c26:	88 e7       	ldi	r24, 0x78	; 120
    1c28:	92 e0       	ldi	r25, 0x02	; 2
    1c2a:	60 91 37 20 	lds	r22, 0x2037
    1c2e:	0e 94 37 0a 	call	0x146e	; 0x146e <ADC_ResultCh_GetWord_Signed>
    1c32:	80 93 4f 20 	sts	0x204F, r24
    1c36:	90 93 50 20 	sts	0x2050, r25

	/* Set input to the channels in ADC A to be PIN 4, 5, 6 and 7. */
}
    1c3a:	ff 91       	pop	r31
    1c3c:	ef 91       	pop	r30
    1c3e:	bf 91       	pop	r27
    1c40:	af 91       	pop	r26
    1c42:	9f 91       	pop	r25
    1c44:	8f 91       	pop	r24
    1c46:	7f 91       	pop	r23
    1c48:	6f 91       	pop	r22
    1c4a:	5f 91       	pop	r21
    1c4c:	4f 91       	pop	r20
    1c4e:	3f 91       	pop	r19
    1c50:	2f 91       	pop	r18
    1c52:	0f 90       	pop	r0
    1c54:	0b be       	out	0x3b, r0	; 59
    1c56:	0f 90       	pop	r0
    1c58:	0f be       	out	0x3f, r0	; 63
    1c5a:	0f 90       	pop	r0
    1c5c:	1f 90       	pop	r1
    1c5e:	18 95       	reti

00001c60 <__vector_74>:
 *  channels is started. If not the interrupt on ADC A channel 3 is disabled.
 *
 */

ISR(ADCA_CH3_vect)
{
    1c60:	1f 92       	push	r1
    1c62:	0f 92       	push	r0
    1c64:	0f b6       	in	r0, 0x3f	; 63
    1c66:	0f 92       	push	r0
    1c68:	0b b6       	in	r0, 0x3b	; 59
    1c6a:	0f 92       	push	r0
    1c6c:	11 24       	eor	r1, r1
    1c6e:	2f 93       	push	r18
    1c70:	3f 93       	push	r19
    1c72:	4f 93       	push	r20
    1c74:	5f 93       	push	r21
    1c76:	6f 93       	push	r22
    1c78:	7f 93       	push	r23
    1c7a:	8f 93       	push	r24
    1c7c:	9f 93       	push	r25
    1c7e:	af 93       	push	r26
    1c80:	bf 93       	push	r27
    1c82:	cf 93       	push	r28
    1c84:	df 93       	push	r29
    1c86:	ef 93       	push	r30
    1c88:	ff 93       	push	r31
	//PORTD.OUTTGL  = PIN5_bm;

	ADC_FreeRunning_Disable(&ADCA);
    1c8a:	c0 e0       	ldi	r28, 0x00	; 0
    1c8c:	d2 e0       	ldi	r29, 0x02	; 2
    1c8e:	80 91 01 02 	lds	r24, 0x0201
    1c92:	87 7f       	andi	r24, 0xF7	; 247
    1c94:	89 83       	std	Y+1, r24	; 0x01

	ADC_Disable(&ADCA);
    1c96:	80 91 00 02 	lds	r24, 0x0200
    1c9a:	8e 7f       	andi	r24, 0xFE	; 254
    1c9c:	80 93 00 02 	sts	0x0200, r24

	/*  Read samples and clear interrupt flags. */
	if (0 == adc_a_control.group)
    1ca0:	80 91 38 20 	lds	r24, 0x2038
    1ca4:	88 23       	and	r24, r24
    1ca6:	09 f0       	breq	.+2      	; 0x1caa <__vector_74+0x4a>
    1ca8:	49 c0       	rjmp	.+146    	; 0x1d3c <__vector_74+0xdc>
	{
		adc_a_control.ad0 = ADC_ResultCh_GetWord_Signed(&ADCA.CH0, adc_a_control.offset);
    1caa:	80 e2       	ldi	r24, 0x20	; 32
    1cac:	92 e0       	ldi	r25, 0x02	; 2
    1cae:	60 91 36 20 	lds	r22, 0x2036
    1cb2:	0e 94 37 0a 	call	0x146e	; 0x146e <ADC_ResultCh_GetWord_Signed>
    1cb6:	80 93 39 20 	sts	0x2039, r24
    1cba:	90 93 3a 20 	sts	0x203A, r25
		adc_a_control.ad1 = ADC_ResultCh_GetWord_Signed(&ADCA.CH1, adc_a_control.offset);
    1cbe:	88 e2       	ldi	r24, 0x28	; 40
    1cc0:	92 e0       	ldi	r25, 0x02	; 2
    1cc2:	60 91 36 20 	lds	r22, 0x2036
    1cc6:	0e 94 37 0a 	call	0x146e	; 0x146e <ADC_ResultCh_GetWord_Signed>
    1cca:	80 93 3b 20 	sts	0x203B, r24
    1cce:	90 93 3c 20 	sts	0x203C, r25
		adc_a_control.ad2 = ADC_ResultCh_GetWord_Signed(&ADCA.CH2, adc_a_control.offset);
    1cd2:	80 e3       	ldi	r24, 0x30	; 48
    1cd4:	92 e0       	ldi	r25, 0x02	; 2
    1cd6:	60 91 36 20 	lds	r22, 0x2036
    1cda:	0e 94 37 0a 	call	0x146e	; 0x146e <ADC_ResultCh_GetWord_Signed>
    1cde:	80 93 3d 20 	sts	0x203D, r24
    1ce2:	90 93 3e 20 	sts	0x203E, r25
		adc_a_control.ad3 = ADC_ResultCh_GetWord_Signed(&ADCA.CH3, adc_a_control.offset);
    1ce6:	88 e3       	ldi	r24, 0x38	; 56
    1ce8:	92 e0       	ldi	r25, 0x02	; 2
    1cea:	60 91 36 20 	lds	r22, 0x2036
    1cee:	0e 94 37 0a 	call	0x146e	; 0x146e <ADC_ResultCh_GetWord_Signed>
    1cf2:	80 93 3f 20 	sts	0x203F, r24
    1cf6:	90 93 40 20 	sts	0x2040, r25

		/* Set input to the channels in ADC A to be PIN 4, 5, 6 and 7. */
		ADC_Ch_InputMux_Config(&ADCA.CH0, ADC_CH_MUXPOS_PIN4_gc, 0);
    1cfa:	80 e2       	ldi	r24, 0x20	; 32
    1cfc:	e0 e2       	ldi	r30, 0x20	; 32
    1cfe:	f2 e0       	ldi	r31, 0x02	; 2
    1d00:	81 83       	std	Z+1, r24	; 0x01
		ADC_Ch_InputMux_Config(&ADCA.CH1, ADC_CH_MUXPOS_PIN5_gc, 0);
    1d02:	88 e2       	ldi	r24, 0x28	; 40
    1d04:	e8 e2       	ldi	r30, 0x28	; 40
    1d06:	f2 e0       	ldi	r31, 0x02	; 2
    1d08:	81 83       	std	Z+1, r24	; 0x01
		ADC_Ch_InputMux_Config(&ADCA.CH2, ADC_CH_MUXPOS_PIN6_gc, 0);
    1d0a:	80 e3       	ldi	r24, 0x30	; 48
    1d0c:	e0 e3       	ldi	r30, 0x30	; 48
    1d0e:	f2 e0       	ldi	r31, 0x02	; 2
    1d10:	81 83       	std	Z+1, r24	; 0x01
		ADC_Ch_InputMux_Config(&ADCA.CH3, ADC_CH_MUXPOS_PIN7_gc, 0);
    1d12:	88 e3       	ldi	r24, 0x38	; 56
    1d14:	e8 e3       	ldi	r30, 0x38	; 56
    1d16:	f2 e0       	ldi	r31, 0x02	; 2
    1d18:	81 83       	std	Z+1, r24	; 0x01

		adc_a_control.group = 1;
    1d1a:	81 e0       	ldi	r24, 0x01	; 1
    1d1c:	80 93 38 20 	sts	0x2038, r24

		ADC_Enable(&ADCA);
    1d20:	80 91 00 02 	lds	r24, 0x0200
    1d24:	81 60       	ori	r24, 0x01	; 1
    1d26:	80 93 00 02 	sts	0x0200, r24

		ADC_Wait_32MHz(&ADCA);
    1d2a:	80 e0       	ldi	r24, 0x00	; 0
    1d2c:	92 e0       	ldi	r25, 0x02	; 2
    1d2e:	0e 94 5c 0a 	call	0x14b8	; 0x14b8 <ADC_Wait_32MHz>

		ADC_FreeRunning_Enable(&ADCA);
    1d32:	80 91 01 02 	lds	r24, 0x0201
    1d36:	88 60       	ori	r24, 0x08	; 8
    1d38:	89 83       	std	Y+1, r24	; 0x01
    1d3a:	4b c0       	rjmp	.+150    	; 0x1dd2 <__vector_74+0x172>
	}
	else if(1 == adc_a_control.group)
    1d3c:	81 30       	cpi	r24, 0x01	; 1
    1d3e:	09 f0       	breq	.+2      	; 0x1d42 <__vector_74+0xe2>
    1d40:	48 c0       	rjmp	.+144    	; 0x1dd2 <__vector_74+0x172>
	{
		adc_a_control.ad4 = ADC_ResultCh_GetWord_Signed(&ADCA.CH0, adc_a_control.offset);
    1d42:	80 e2       	ldi	r24, 0x20	; 32
    1d44:	92 e0       	ldi	r25, 0x02	; 2
    1d46:	60 91 36 20 	lds	r22, 0x2036
    1d4a:	0e 94 37 0a 	call	0x146e	; 0x146e <ADC_ResultCh_GetWord_Signed>
    1d4e:	80 93 41 20 	sts	0x2041, r24
    1d52:	90 93 42 20 	sts	0x2042, r25
		adc_a_control.ad5 = ADC_ResultCh_GetWord_Signed(&ADCA.CH1, adc_a_control.offset);
    1d56:	88 e2       	ldi	r24, 0x28	; 40
    1d58:	92 e0       	ldi	r25, 0x02	; 2
    1d5a:	60 91 36 20 	lds	r22, 0x2036
    1d5e:	0e 94 37 0a 	call	0x146e	; 0x146e <ADC_ResultCh_GetWord_Signed>
    1d62:	80 93 43 20 	sts	0x2043, r24
    1d66:	90 93 44 20 	sts	0x2044, r25
		adc_a_control.ad6 = ADC_ResultCh_GetWord_Signed(&ADCA.CH2, adc_a_control.offset);
    1d6a:	80 e3       	ldi	r24, 0x30	; 48
    1d6c:	92 e0       	ldi	r25, 0x02	; 2
    1d6e:	60 91 36 20 	lds	r22, 0x2036
    1d72:	0e 94 37 0a 	call	0x146e	; 0x146e <ADC_ResultCh_GetWord_Signed>
    1d76:	80 93 45 20 	sts	0x2045, r24
    1d7a:	90 93 46 20 	sts	0x2046, r25
		adc_a_control.ad7 = ADC_ResultCh_GetWord_Signed(&ADCA.CH3, adc_a_control.offset);
    1d7e:	88 e3       	ldi	r24, 0x38	; 56
    1d80:	92 e0       	ldi	r25, 0x02	; 2
    1d82:	60 91 36 20 	lds	r22, 0x2036
    1d86:	0e 94 37 0a 	call	0x146e	; 0x146e <ADC_ResultCh_GetWord_Signed>
    1d8a:	80 93 47 20 	sts	0x2047, r24
    1d8e:	90 93 48 20 	sts	0x2048, r25

		/* Set input to the channels in ADC A to be PIN 4, 5, 6 and 7. */
		ADC_Ch_InputMux_Config(&ADCA.CH0, ADC_CH_MUXPOS_PIN0_gc, 0);
    1d92:	e0 e2       	ldi	r30, 0x20	; 32
    1d94:	f2 e0       	ldi	r31, 0x02	; 2
    1d96:	11 82       	std	Z+1, r1	; 0x01
		ADC_Ch_InputMux_Config(&ADCA.CH1, ADC_CH_MUXPOS_PIN1_gc, 0);
    1d98:	88 e0       	ldi	r24, 0x08	; 8
    1d9a:	e8 e2       	ldi	r30, 0x28	; 40
    1d9c:	f2 e0       	ldi	r31, 0x02	; 2
    1d9e:	81 83       	std	Z+1, r24	; 0x01
		ADC_Ch_InputMux_Config(&ADCA.CH2, ADC_CH_MUXPOS_PIN2_gc, 0);
    1da0:	80 e1       	ldi	r24, 0x10	; 16
    1da2:	e0 e3       	ldi	r30, 0x30	; 48
    1da4:	f2 e0       	ldi	r31, 0x02	; 2
    1da6:	81 83       	std	Z+1, r24	; 0x01
		ADC_Ch_InputMux_Config(&ADCA.CH3, ADC_CH_MUXPOS_PIN3_gc, 0);
    1da8:	88 e1       	ldi	r24, 0x18	; 24
    1daa:	e8 e3       	ldi	r30, 0x38	; 56
    1dac:	f2 e0       	ldi	r31, 0x02	; 2
    1dae:	81 83       	std	Z+1, r24	; 0x01

		adc_a_control.group = 0;
    1db0:	10 92 38 20 	sts	0x2038, r1

		/* Enable ADC A with free running mode, VCC reference and signed conversion.*/
		ADC_Enable(&ADCB);
    1db4:	80 91 40 02 	lds	r24, 0x0240
    1db8:	81 60       	ori	r24, 0x01	; 1
    1dba:	80 93 40 02 	sts	0x0240, r24

		/* Wait until common mode voltage is stable. Default clock is 2MHz and
		 * therefore below the maximum frequency to use this function. */
		ADC_Wait_32MHz(&ADCB);
    1dbe:	80 e4       	ldi	r24, 0x40	; 64
    1dc0:	92 e0       	ldi	r25, 0x02	; 2
    1dc2:	0e 94 5c 0a 	call	0x14b8	; 0x14b8 <ADC_Wait_32MHz>

		/* Enable free running mode. */
		ADC_FreeRunning_Enable(&ADCB);
    1dc6:	80 91 41 02 	lds	r24, 0x0241
    1dca:	88 60       	ori	r24, 0x08	; 8
    1dcc:	e0 e4       	ldi	r30, 0x40	; 64
    1dce:	f2 e0       	ldi	r31, 0x02	; 2
    1dd0:	81 83       	std	Z+1, r24	; 0x01
	}
}
    1dd2:	ff 91       	pop	r31
    1dd4:	ef 91       	pop	r30
    1dd6:	df 91       	pop	r29
    1dd8:	cf 91       	pop	r28
    1dda:	bf 91       	pop	r27
    1ddc:	af 91       	pop	r26
    1dde:	9f 91       	pop	r25
    1de0:	8f 91       	pop	r24
    1de2:	7f 91       	pop	r23
    1de4:	6f 91       	pop	r22
    1de6:	5f 91       	pop	r21
    1de8:	4f 91       	pop	r20
    1dea:	3f 91       	pop	r19
    1dec:	2f 91       	pop	r18
    1dee:	0f 90       	pop	r0
    1df0:	0b be       	out	0x3b, r0	; 59
    1df2:	0f 90       	pop	r0
    1df4:	0f be       	out	0x3f, r0	; 63
    1df6:	0f 90       	pop	r0
    1df8:	1f 90       	pop	r1
    1dfa:	18 95       	reti

00001dfc <InitAdcB>:
** 修订人:
** 修订日期:
**------------------------------------------------------------------------------------------------------------------------
*************************************************************************************************************************/
void InitAdcB(void)
{
    1dfc:	ef 92       	push	r14
    1dfe:	ff 92       	push	r15
    1e00:	0f 93       	push	r16
    1e02:	1f 93       	push	r17
    1e04:	cf 93       	push	r28
    1e06:	df 93       	push	r29
	/* Move stored calibration values to ADC B. */
	ADC_CalibrationValues_Load(&ADCB);
    1e08:	80 e4       	ldi	r24, 0x40	; 64
    1e0a:	92 e0       	ldi	r25, 0x02	; 2
    1e0c:	0e 94 04 0a 	call	0x1408	; 0x1408 <ADC_CalibrationValues_Load>

	/* Set up ADC A to have signed conversion mode and 12 bit resolution. */
  	ADC_ConvMode_and_Resolution_Config(&ADCB, ADC_ConvMode_Unsigned, ADC_RESOLUTION_12BIT_gc);
    1e10:	80 e4       	ldi	r24, 0x40	; 64
    1e12:	e8 2e       	mov	r14, r24
    1e14:	82 e0       	ldi	r24, 0x02	; 2
    1e16:	f8 2e       	mov	r15, r24
    1e18:	d7 01       	movw	r26, r14
    1e1a:	11 96       	adiw	r26, 0x01	; 1
    1e1c:	8c 91       	ld	r24, X
    1e1e:	11 97       	sbiw	r26, 0x01	; 1
    1e20:	89 7e       	andi	r24, 0xE9	; 233
    1e22:	11 96       	adiw	r26, 0x01	; 1
    1e24:	8c 93       	st	X, r24
    1e26:	11 97       	sbiw	r26, 0x01	; 1

	/* Set sample rate */
	ADC_Prescaler_Config(&ADCB, ADC_PRESCALER_DIV512_gc);
    1e28:	14 96       	adiw	r26, 0x04	; 4
    1e2a:	8c 91       	ld	r24, X
    1e2c:	14 97       	sbiw	r26, 0x04	; 4
    1e2e:	87 60       	ori	r24, 0x07	; 7
    1e30:	14 96       	adiw	r26, 0x04	; 4
    1e32:	8c 93       	st	X, r24
    1e34:	14 97       	sbiw	r26, 0x04	; 4

	/* Set referance voltage on ADC A to be VCC/1.6 V.*/
	ADC_Reference_Config(&ADCB, ADC_REFSEL_VCC_gc);	//ADC_REFSEL_INT1V_gc
    1e36:	12 96       	adiw	r26, 0x02	; 2
    1e38:	8c 91       	ld	r24, X
    1e3a:	12 97       	sbiw	r26, 0x02	; 2
    1e3c:	8f 7c       	andi	r24, 0xCF	; 207
    1e3e:	80 61       	ori	r24, 0x10	; 16
    1e40:	12 96       	adiw	r26, 0x02	; 2
    1e42:	8c 93       	st	X, r24
    1e44:	12 97       	sbiw	r26, 0x02	; 2

   	/* Get offset value for ADC A. */
	ADC_Ch_InputMode_and_Gain_Config(&ADCB.CH0,
    1e46:	00 e6       	ldi	r16, 0x60	; 96
    1e48:	12 e0       	ldi	r17, 0x02	; 2
    1e4a:	e8 01       	movw	r28, r16
    1e4c:	88 81       	ld	r24, Y
    1e4e:	80 7e       	andi	r24, 0xE0	; 224
    1e50:	82 60       	ori	r24, 0x02	; 2
    1e52:	88 83       	st	Y, r24
	                                 ADC_CH_INPUTMODE_DIFF_gc,
	                                 ADC_DRIVER_CH_GAIN_NONE);

   	ADC_Ch_InputMux_Config(&ADCB.CH0, ADC_CH_MUXPOS_PIN1_gc, ADC_CH_MUXNEG_PIN1_gc);
    1e54:	89 e0       	ldi	r24, 0x09	; 9
    1e56:	89 83       	std	Y+1, r24	; 0x01

	ADC_Enable(&ADCB);
    1e58:	8c 91       	ld	r24, X
    1e5a:	81 60       	ori	r24, 0x01	; 1
    1e5c:	8c 93       	st	X, r24
	/* Wait until common mode voltage is stable. Default clk is 2MHz and
	 * therefore below the maximum frequency to use this function. */
	ADC_Wait_32MHz(&ADCB);
    1e5e:	80 e4       	ldi	r24, 0x40	; 64
    1e60:	92 e0       	ldi	r25, 0x02	; 2
    1e62:	0e 94 5c 0a 	call	0x14b8	; 0x14b8 <ADC_Wait_32MHz>
	adc_a_control.offset_b = ADC_Offset_Get_Signed(&ADCB, &ADCB.CH0, false);
    1e66:	80 e4       	ldi	r24, 0x40	; 64
    1e68:	92 e0       	ldi	r25, 0x02	; 2
    1e6a:	60 e6       	ldi	r22, 0x60	; 96
    1e6c:	72 e0       	ldi	r23, 0x02	; 2
    1e6e:	40 e0       	ldi	r20, 0x00	; 0
    1e70:	0e 94 8b 0a 	call	0x1516	; 0x1516 <ADC_Offset_Get_Signed>
    1e74:	80 93 37 20 	sts	0x2037, r24
    ADC_Disable(&ADCB);
    1e78:	f7 01       	movw	r30, r14
    1e7a:	80 81       	ld	r24, Z
    1e7c:	8e 7f       	andi	r24, 0xFE	; 254
    1e7e:	80 83       	st	Z, r24

	/* Setup channel 0, 1, 2 and 3 to have single ended input. */
	ADC_Ch_InputMode_and_Gain_Config(&ADCB.CH0,
    1e80:	88 81       	ld	r24, Y
    1e82:	80 7e       	andi	r24, 0xE0	; 224
    1e84:	81 60       	ori	r24, 0x01	; 1
    1e86:	88 83       	st	Y, r24
	                                 ADC_CH_INPUTMODE_SINGLEENDED_gc,
	                                 ADC_DRIVER_CH_GAIN_NONE);

	ADC_Ch_InputMode_and_Gain_Config(&ADCB.CH1,
    1e88:	28 e6       	ldi	r18, 0x68	; 104
    1e8a:	32 e0       	ldi	r19, 0x02	; 2
    1e8c:	d9 01       	movw	r26, r18
    1e8e:	8c 91       	ld	r24, X
    1e90:	80 7e       	andi	r24, 0xE0	; 224
    1e92:	81 60       	ori	r24, 0x01	; 1
    1e94:	8c 93       	st	X, r24
	                                 ADC_CH_INPUTMODE_SINGLEENDED_gc,
	                                 ADC_DRIVER_CH_GAIN_NONE);

	ADC_Ch_InputMode_and_Gain_Config(&ADCB.CH2,
    1e96:	a0 e7       	ldi	r26, 0x70	; 112
    1e98:	b2 e0       	ldi	r27, 0x02	; 2
    1e9a:	8c 91       	ld	r24, X
    1e9c:	80 7e       	andi	r24, 0xE0	; 224
    1e9e:	81 60       	ori	r24, 0x01	; 1
    1ea0:	8c 93       	st	X, r24
	                                 ADC_CH_INPUTMODE_SINGLEENDED_gc,
	                                 ADC_DRIVER_CH_GAIN_NONE);

	ADC_Ch_InputMode_and_Gain_Config(&ADCB.CH3,
    1ea2:	e8 e7       	ldi	r30, 0x78	; 120
    1ea4:	f2 e0       	ldi	r31, 0x02	; 2
    1ea6:	80 81       	ld	r24, Z
    1ea8:	80 7e       	andi	r24, 0xE0	; 224
    1eaa:	81 60       	ori	r24, 0x01	; 1
    1eac:	80 83       	st	Z, r24
	                                 ADC_CH_INPUTMODE_SINGLEENDED_gc,
	                                 ADC_DRIVER_CH_GAIN_NONE);

	ADC_Ch_InputMode_and_Gain_Config(&ADCB.CH0,
    1eae:	88 81       	ld	r24, Y
    1eb0:	80 7e       	andi	r24, 0xE0	; 224
    1eb2:	81 60       	ori	r24, 0x01	; 1
    1eb4:	88 83       	st	Y, r24
	                                 ADC_CH_INPUTMODE_SINGLEENDED_gc,
	                                 ADC_DRIVER_CH_GAIN_NONE);

	/* Set input to the channels in ADC A to be PIN 4, 5, 6 and 7. */
	ADC_Ch_InputMux_Config(&ADCB.CH0, ADC_CH_MUXPOS_PIN0_gc, 0);
    1eb6:	19 82       	std	Y+1, r1	; 0x01
	ADC_Ch_InputMux_Config(&ADCB.CH1, ADC_CH_MUXPOS_PIN1_gc, 0);
    1eb8:	88 e0       	ldi	r24, 0x08	; 8
    1eba:	e9 01       	movw	r28, r18
    1ebc:	89 83       	std	Y+1, r24	; 0x01
	ADC_Ch_InputMux_Config(&ADCB.CH2, ADC_CH_MUXPOS_PIN2_gc, 0);
    1ebe:	80 e1       	ldi	r24, 0x10	; 16
    1ec0:	11 96       	adiw	r26, 0x01	; 1
    1ec2:	8c 93       	st	X, r24
	ADC_Ch_InputMux_Config(&ADCB.CH3, ADC_CH_MUXPOS_PIN3_gc, 0);
    1ec4:	88 e1       	ldi	r24, 0x18	; 24
    1ec6:	81 83       	std	Z+1, r24	; 0x01

	/* Setup sweep of all four virtual channels.*/
	ADC_SweepChannels_Config(&ADCB, ADC_SWEEP_0123_gc);
    1ec8:	d7 01       	movw	r26, r14
    1eca:	13 96       	adiw	r26, 0x03	; 3
    1ecc:	8c 91       	ld	r24, X
    1ece:	13 97       	sbiw	r26, 0x03	; 3
    1ed0:	80 6c       	ori	r24, 0xC0	; 192
    1ed2:	13 96       	adiw	r26, 0x03	; 3
    1ed4:	8c 93       	st	X, r24

	/* Enable low level interrupts on ADCA channel 3, on conversion complete. */
	ADC_Ch_Interrupts_Config(&ADCB.CH3, ADC_CH_INTMODE_COMPLETE_gc, ADC_CH_INTLVL_MED_gc);
    1ed6:	82 81       	ldd	r24, Z+2	; 0x02
    1ed8:	80 7f       	andi	r24, 0xF0	; 240
    1eda:	82 60       	ori	r24, 0x02	; 2
    1edc:	82 83       	std	Z+2, r24	; 0x02
//	/* Enable PMIC interrupt level low. */
//	PMIC.CTRL |= PMIC_LOLVLEX_bm;
//
//	/* Enable global interrupts. */
//	sei();
}
    1ede:	df 91       	pop	r29
    1ee0:	cf 91       	pop	r28
    1ee2:	1f 91       	pop	r17
    1ee4:	0f 91       	pop	r16
    1ee6:	ff 90       	pop	r15
    1ee8:	ef 90       	pop	r14
    1eea:	08 95       	ret

00001eec <InitAdcA>:
** 修订人:
** 修订日期:
**------------------------------------------------------------------------------------------------------------------------
*************************************************************************************************************************/
void InitAdcA(void)
{
    1eec:	ef 92       	push	r14
    1eee:	ff 92       	push	r15
    1ef0:	0f 93       	push	r16
    1ef2:	1f 93       	push	r17
    1ef4:	cf 93       	push	r28
    1ef6:	df 93       	push	r29
	/* Move stored calibration values to ADC A. */
	ADC_CalibrationValues_Load(&ADCA);
    1ef8:	80 e0       	ldi	r24, 0x00	; 0
    1efa:	92 e0       	ldi	r25, 0x02	; 2
    1efc:	0e 94 04 0a 	call	0x1408	; 0x1408 <ADC_CalibrationValues_Load>

	/* Set up ADC A to have signed conversion mode and 12 bit resolution. */
  	ADC_ConvMode_and_Resolution_Config(&ADCA, ADC_ConvMode_Unsigned, ADC_RESOLUTION_12BIT_gc);
    1f00:	e1 2c       	mov	r14, r1
    1f02:	92 e0       	ldi	r25, 0x02	; 2
    1f04:	f9 2e       	mov	r15, r25
    1f06:	d7 01       	movw	r26, r14
    1f08:	11 96       	adiw	r26, 0x01	; 1
    1f0a:	8c 91       	ld	r24, X
    1f0c:	11 97       	sbiw	r26, 0x01	; 1
    1f0e:	89 7e       	andi	r24, 0xE9	; 233
    1f10:	11 96       	adiw	r26, 0x01	; 1
    1f12:	8c 93       	st	X, r24
    1f14:	11 97       	sbiw	r26, 0x01	; 1

	/* Set sample rate */
	ADC_Prescaler_Config(&ADCA, ADC_PRESCALER_DIV512_gc);
    1f16:	14 96       	adiw	r26, 0x04	; 4
    1f18:	8c 91       	ld	r24, X
    1f1a:	14 97       	sbiw	r26, 0x04	; 4
    1f1c:	87 60       	ori	r24, 0x07	; 7
    1f1e:	14 96       	adiw	r26, 0x04	; 4
    1f20:	8c 93       	st	X, r24
    1f22:	14 97       	sbiw	r26, 0x04	; 4

	/* Set referance voltage on ADC A to be VCC/1.6 V.*/
	ADC_Reference_Config(&ADCA, ADC_REFSEL_VCC_gc);
    1f24:	12 96       	adiw	r26, 0x02	; 2
    1f26:	8c 91       	ld	r24, X
    1f28:	12 97       	sbiw	r26, 0x02	; 2
    1f2a:	8f 7c       	andi	r24, 0xCF	; 207
    1f2c:	80 61       	ori	r24, 0x10	; 16
    1f2e:	12 96       	adiw	r26, 0x02	; 2
    1f30:	8c 93       	st	X, r24
    1f32:	12 97       	sbiw	r26, 0x02	; 2

   	/* Get offset value for ADC A. */
	ADC_Ch_InputMode_and_Gain_Config(&ADCA.CH0,
    1f34:	00 e2       	ldi	r16, 0x20	; 32
    1f36:	12 e0       	ldi	r17, 0x02	; 2
    1f38:	e8 01       	movw	r28, r16
    1f3a:	88 81       	ld	r24, Y
    1f3c:	80 7e       	andi	r24, 0xE0	; 224
    1f3e:	82 60       	ori	r24, 0x02	; 2
    1f40:	88 83       	st	Y, r24
	                                 ADC_CH_INPUTMODE_DIFF_gc,
	                                 ADC_DRIVER_CH_GAIN_NONE);

   	ADC_Ch_InputMux_Config(&ADCA.CH0, ADC_CH_MUXPOS_PIN1_gc, ADC_CH_MUXNEG_PIN1_gc);
    1f42:	89 e0       	ldi	r24, 0x09	; 9
    1f44:	89 83       	std	Y+1, r24	; 0x01

	ADC_Enable(&ADCA);
    1f46:	8c 91       	ld	r24, X
    1f48:	81 60       	ori	r24, 0x01	; 1
    1f4a:	8c 93       	st	X, r24
	/* Wait until common mode voltage is stable. Default clk is 2MHz and
	 * therefore below the maximum frequency to use this function. */
	ADC_Wait_32MHz(&ADCA);
    1f4c:	80 e0       	ldi	r24, 0x00	; 0
    1f4e:	92 e0       	ldi	r25, 0x02	; 2
    1f50:	0e 94 5c 0a 	call	0x14b8	; 0x14b8 <ADC_Wait_32MHz>
	adc_a_control.offset = ADC_Offset_Get_Signed(&ADCA, &ADCA.CH0, false);
    1f54:	80 e0       	ldi	r24, 0x00	; 0
    1f56:	92 e0       	ldi	r25, 0x02	; 2
    1f58:	60 e2       	ldi	r22, 0x20	; 32
    1f5a:	72 e0       	ldi	r23, 0x02	; 2
    1f5c:	40 e0       	ldi	r20, 0x00	; 0
    1f5e:	0e 94 8b 0a 	call	0x1516	; 0x1516 <ADC_Offset_Get_Signed>
    1f62:	80 93 36 20 	sts	0x2036, r24
    ADC_Disable(&ADCA);
    1f66:	f7 01       	movw	r30, r14
    1f68:	80 81       	ld	r24, Z
    1f6a:	8e 7f       	andi	r24, 0xFE	; 254
    1f6c:	80 83       	st	Z, r24

	/* Setup channel 0, 1, 2 and 3 to have single ended input. */
	ADC_Ch_InputMode_and_Gain_Config(&ADCA.CH0,
    1f6e:	88 81       	ld	r24, Y
    1f70:	80 7e       	andi	r24, 0xE0	; 224
    1f72:	81 60       	ori	r24, 0x01	; 1
    1f74:	88 83       	st	Y, r24
	                                 ADC_CH_INPUTMODE_SINGLEENDED_gc,
	                                 ADC_DRIVER_CH_GAIN_NONE);

	ADC_Ch_InputMode_and_Gain_Config(&ADCA.CH1,
    1f76:	28 e2       	ldi	r18, 0x28	; 40
    1f78:	32 e0       	ldi	r19, 0x02	; 2
    1f7a:	d9 01       	movw	r26, r18
    1f7c:	8c 91       	ld	r24, X
    1f7e:	80 7e       	andi	r24, 0xE0	; 224
    1f80:	81 60       	ori	r24, 0x01	; 1
    1f82:	8c 93       	st	X, r24
	                                 ADC_CH_INPUTMODE_SINGLEENDED_gc,
	                                 ADC_DRIVER_CH_GAIN_NONE);

	ADC_Ch_InputMode_and_Gain_Config(&ADCA.CH2,
    1f84:	a0 e3       	ldi	r26, 0x30	; 48
    1f86:	b2 e0       	ldi	r27, 0x02	; 2
    1f88:	8c 91       	ld	r24, X
    1f8a:	80 7e       	andi	r24, 0xE0	; 224
    1f8c:	81 60       	ori	r24, 0x01	; 1
    1f8e:	8c 93       	st	X, r24
	                                 ADC_CH_INPUTMODE_SINGLEENDED_gc,
	                                 ADC_DRIVER_CH_GAIN_NONE);

	ADC_Ch_InputMode_and_Gain_Config(&ADCA.CH3,
    1f90:	e8 e3       	ldi	r30, 0x38	; 56
    1f92:	f2 e0       	ldi	r31, 0x02	; 2
    1f94:	80 81       	ld	r24, Z
    1f96:	80 7e       	andi	r24, 0xE0	; 224
    1f98:	81 60       	ori	r24, 0x01	; 1
    1f9a:	80 83       	st	Z, r24
	                                 ADC_CH_INPUTMODE_SINGLEENDED_gc,
	                                 ADC_DRIVER_CH_GAIN_NONE);

	ADC_Ch_InputMode_and_Gain_Config(&ADCA.CH0,
    1f9c:	88 81       	ld	r24, Y
    1f9e:	80 7e       	andi	r24, 0xE0	; 224
    1fa0:	81 60       	ori	r24, 0x01	; 1
    1fa2:	88 83       	st	Y, r24
	                                 ADC_CH_INPUTMODE_SINGLEENDED_gc,
	                                 ADC_DRIVER_CH_GAIN_NONE);

	/* Set input to the channels in ADC A to be PIN 4, 5, 6 and 7. */
	ADC_Ch_InputMux_Config(&ADCA.CH0, ADC_CH_MUXPOS_PIN0_gc, 0);
    1fa4:	19 82       	std	Y+1, r1	; 0x01
	ADC_Ch_InputMux_Config(&ADCA.CH1, ADC_CH_MUXPOS_PIN1_gc, 0);
    1fa6:	88 e0       	ldi	r24, 0x08	; 8
    1fa8:	e9 01       	movw	r28, r18
    1faa:	89 83       	std	Y+1, r24	; 0x01
	ADC_Ch_InputMux_Config(&ADCA.CH2, ADC_CH_MUXPOS_PIN2_gc, 0);
    1fac:	80 e1       	ldi	r24, 0x10	; 16
    1fae:	11 96       	adiw	r26, 0x01	; 1
    1fb0:	8c 93       	st	X, r24
	ADC_Ch_InputMux_Config(&ADCA.CH3, ADC_CH_MUXPOS_PIN3_gc, 0);
    1fb2:	88 e1       	ldi	r24, 0x18	; 24
    1fb4:	81 83       	std	Z+1, r24	; 0x01

	/* Setup sweep of all four virtual channels.*/
	ADC_SweepChannels_Config(&ADCA, ADC_SWEEP_0123_gc);
    1fb6:	d7 01       	movw	r26, r14
    1fb8:	13 96       	adiw	r26, 0x03	; 3
    1fba:	8c 91       	ld	r24, X
    1fbc:	13 97       	sbiw	r26, 0x03	; 3
    1fbe:	80 6c       	ori	r24, 0xC0	; 192
    1fc0:	13 96       	adiw	r26, 0x03	; 3
    1fc2:	8c 93       	st	X, r24

	/* Enable low level interrupts on ADCA channel 3, on conversion complete. */
	ADC_Ch_Interrupts_Config(&ADCA.CH3, ADC_CH_INTMODE_COMPLETE_gc, ADC_CH_INTLVL_MED_gc);
    1fc4:	82 81       	ldd	r24, Z+2	; 0x02
    1fc6:	80 7f       	andi	r24, 0xF0	; 240
    1fc8:	82 60       	ori	r24, 0x02	; 2
    1fca:	82 83       	std	Z+2, r24	; 0x02
//	/* Enable PMIC interrupt level low. */
//	PMIC.CTRL |= PMIC_LOLVLEX_bm;
//
//	/* Enable global interrupts. */
//	sei();
}
    1fcc:	df 91       	pop	r29
    1fce:	cf 91       	pop	r28
    1fd0:	1f 91       	pop	r17
    1fd2:	0f 91       	pop	r16
    1fd4:	ff 90       	pop	r15
    1fd6:	ef 90       	pop	r14
    1fd8:	08 95       	ret

00001fda <main>:
void TestIC(void);

int main(void)
{

	CbCtrl.p_InitDev();
    1fda:	e0 91 1b 20 	lds	r30, 0x201B
    1fde:	f0 91 1c 20 	lds	r31, 0x201C
    1fe2:	09 95       	icall
    1fe4:	20 e5       	ldi	r18, 0x50	; 80
    1fe6:	33 ec       	ldi	r19, 0xC3	; 195
    1fe8:	c9 01       	movw	r24, r18
    1fea:	01 97       	sbiw	r24, 0x01	; 1
    1fec:	f1 f7       	brne	.-4      	; 0x1fea <main+0x10>
    1fee:	fc cf       	rjmp	.-8      	; 0x1fe8 <main+0xe>

00001ff0 <__vector_83>:
}


/*	定时器D1中断，周期为4ms	*/
ISR(TCD1_OVF_vect)
{
    1ff0:	1f 92       	push	r1
    1ff2:	0f 92       	push	r0
    1ff4:	0f b6       	in	r0, 0x3f	; 63
    1ff6:	0f 92       	push	r0
    1ff8:	0b b6       	in	r0, 0x3b	; 59
    1ffa:	0f 92       	push	r0
    1ffc:	11 24       	eor	r1, r1
    1ffe:	2f 93       	push	r18
    2000:	3f 93       	push	r19
    2002:	4f 93       	push	r20
    2004:	5f 93       	push	r21
    2006:	6f 93       	push	r22
    2008:	7f 93       	push	r23
    200a:	8f 93       	push	r24
    200c:	9f 93       	push	r25
    200e:	af 93       	push	r26
    2010:	bf 93       	push	r27
    2012:	ef 93       	push	r30
    2014:	ff 93       	push	r31


	/* Toggle PD0 output after 5 switch presses. */
	TC1_ConfigClockSource( &TCD1, TC_CLKSEL_OFF_gc );
    2016:	80 e4       	ldi	r24, 0x40	; 64
    2018:	99 e0       	ldi	r25, 0x09	; 9
    201a:	60 e0       	ldi	r22, 0x00	; 0
    201c:	0e 94 80 09 	call	0x1300	; 0x1300 <TC1_ConfigClockSource>

		CbCtrl.p_DealCtrl();
    2020:	e0 91 1d 20 	lds	r30, 0x201D
    2024:	f0 91 1e 20 	lds	r31, 0x201E
    2028:	09 95       	icall

	TC1_ConfigClockSource( &TCD1, TC_CLKSEL_DIV64_gc );
    202a:	80 e4       	ldi	r24, 0x40	; 64
    202c:	99 e0       	ldi	r25, 0x09	; 9
    202e:	65 e0       	ldi	r22, 0x05	; 5
    2030:	0e 94 80 09 	call	0x1300	; 0x1300 <TC1_ConfigClockSource>
}
    2034:	ff 91       	pop	r31
    2036:	ef 91       	pop	r30
    2038:	bf 91       	pop	r27
    203a:	af 91       	pop	r26
    203c:	9f 91       	pop	r25
    203e:	8f 91       	pop	r24
    2040:	7f 91       	pop	r23
    2042:	6f 91       	pop	r22
    2044:	5f 91       	pop	r21
    2046:	4f 91       	pop	r20
    2048:	3f 91       	pop	r19
    204a:	2f 91       	pop	r18
    204c:	0f 90       	pop	r0
    204e:	0b be       	out	0x3b, r0	; 59
    2050:	0f 90       	pop	r0
    2052:	0f be       	out	0x3f, r0	; 63
    2054:	0f 90       	pop	r0
    2056:	1f 90       	pop	r1
    2058:	18 95       	reti

0000205a <__vector_77>:



/*	定时器D0中断，周期为1ms 用于串口处理*/
ISR(TCD0_OVF_vect)
{
    205a:	1f 92       	push	r1
    205c:	0f 92       	push	r0
    205e:	0f b6       	in	r0, 0x3f	; 63
    2060:	0f 92       	push	r0
    2062:	0b b6       	in	r0, 0x3b	; 59
    2064:	0f 92       	push	r0
    2066:	11 24       	eor	r1, r1
    2068:	2f 93       	push	r18
    206a:	3f 93       	push	r19
    206c:	4f 93       	push	r20
    206e:	5f 93       	push	r21
    2070:	6f 93       	push	r22
    2072:	7f 93       	push	r23
    2074:	8f 93       	push	r24
    2076:	9f 93       	push	r25
    2078:	af 93       	push	r26
    207a:	bf 93       	push	r27
    207c:	ef 93       	push	r30
    207e:	ff 93       	push	r31


	static uint8_t MMM;

	/* Toggle PD0 output after 5 switch presses. */
	TC0_ConfigClockSource( &TCD0, TC_CLKSEL_OFF_gc );
    2080:	80 e0       	ldi	r24, 0x00	; 0
    2082:	99 e0       	ldi	r25, 0x09	; 9
    2084:	60 e0       	ldi	r22, 0x00	; 0
    2086:	0e 94 7a 09 	call	0x12f4	; 0x12f4 <TC0_ConfigClockSource>

	CbDisCtrl.pDealRcData(&USART_data_C1,&CbDisCtrlData);
    208a:	e0 91 2c 20 	lds	r30, 0x202C
    208e:	f0 91 2d 20 	lds	r31, 0x202D
    2092:	8e e1       	ldi	r24, 0x1E	; 30
    2094:	91 e2       	ldi	r25, 0x21	; 33
    2096:	62 eb       	ldi	r22, 0xB2	; 178
    2098:	70 e2       	ldi	r23, 0x20	; 32
    209a:	09 95       	icall

	MMM = CbCtrlData.ComSwState;
    209c:	80 91 9e 20 	lds	r24, 0x209E
    20a0:	80 93 d2 20 	sts	0x20D2, r24

	if(CbCtrlData.ComSwState == COM_WIRELESS_EN)
    20a4:	81 30       	cpi	r24, 0x01	; 1
    20a6:	39 f4       	brne	.+14     	; 0x20b6 <__vector_77+0x5c>
		CbCtrl.pDearRcData(&USART_data_C0,&CbCtrlData);
    20a8:	e0 91 25 20 	lds	r30, 0x2025
    20ac:	f0 91 26 20 	lds	r31, 0x2026
    20b0:	8c ea       	ldi	r24, 0xAC	; 172
    20b2:	91 e2       	ldi	r25, 0x21	; 33
    20b4:	08 c0       	rjmp	.+16     	; 0x20c6 <__vector_77+0x6c>
	else if(CbCtrlData.ComSwState == COM_WIRE_EN)
    20b6:	82 30       	cpi	r24, 0x02	; 2
    20b8:	49 f4       	brne	.+18     	; 0x20cc <__vector_77+0x72>
		CbCtrl.pDearRcData(&USART_data_D0,&CbCtrlData);
    20ba:	e0 91 25 20 	lds	r30, 0x2025
    20be:	f0 91 26 20 	lds	r31, 0x2026
    20c2:	81 e8       	ldi	r24, 0x81	; 129
    20c4:	92 e2       	ldi	r25, 0x22	; 34
    20c6:	64 e7       	ldi	r22, 0x74	; 116
    20c8:	70 e2       	ldi	r23, 0x20	; 32
    20ca:	09 95       	icall


	TC0_ConfigClockSource( &TCD0, TC_CLKSEL_DIV64_gc );
    20cc:	80 e0       	ldi	r24, 0x00	; 0
    20ce:	99 e0       	ldi	r25, 0x09	; 9
    20d0:	65 e0       	ldi	r22, 0x05	; 5
    20d2:	0e 94 7a 09 	call	0x12f4	; 0x12f4 <TC0_ConfigClockSource>
}
    20d6:	ff 91       	pop	r31
    20d8:	ef 91       	pop	r30
    20da:	bf 91       	pop	r27
    20dc:	af 91       	pop	r26
    20de:	9f 91       	pop	r25
    20e0:	8f 91       	pop	r24
    20e2:	7f 91       	pop	r23
    20e4:	6f 91       	pop	r22
    20e6:	5f 91       	pop	r21
    20e8:	4f 91       	pop	r20
    20ea:	3f 91       	pop	r19
    20ec:	2f 91       	pop	r18
    20ee:	0f 90       	pop	r0
    20f0:	0b be       	out	0x3b, r0	; 59
    20f2:	0f 90       	pop	r0
    20f4:	0f be       	out	0x3f, r0	; 63
    20f6:	0f 90       	pop	r0
    20f8:	1f 90       	pop	r1
    20fa:	18 95       	reti

000020fc <InitClkSys>:
{
	/* Enable for external 2-9 MHz crystal with quick startup time
	 * (256CLK). Check if it's stable and set the external
	 * oscillator as the main clock source.
	 */
	CLKSYS_XOSC_Config( OSC_FRQRANGE_2TO9_gc,
    20fc:	80 e4       	ldi	r24, 0x40	; 64
    20fe:	60 e0       	ldi	r22, 0x00	; 0
    2100:	40 e0       	ldi	r20, 0x00	; 0
    2102:	0e 94 d2 0a 	call	0x15a4	; 0x15a4 <CLKSYS_XOSC_Config>
						false,
						OSC_XOSCSEL_EXTCLK_gc );
	CLKSYS_Enable( OSC_XOSCEN_bm );
    2106:	80 91 50 00 	lds	r24, 0x0050
    210a:	88 60       	ori	r24, 0x08	; 8
    210c:	80 93 50 00 	sts	0x0050, r24
	do {} while ( CLKSYS_IsReady( OSC_XOSCRDY_bm ) == 0 );
    2110:	80 91 51 00 	lds	r24, 0x0051
    2114:	83 ff       	sbrs	r24, 3
    2116:	fc cf       	rjmp	.-8      	; 0x2110 <InitClkSys+0x14>
	/*  Configure PLL with the external 2-9 MHz crystal as source and
	 *  multiply by 8 to get 64 MHz PLL clock and enable it. Wait
	 *  for it to be stable and set prescaler C to divide by two
	 *  to set the CPU clock to 32 MHz. Disable unused clock.
	 */
	CLKSYS_PLL_Config( OSC_PLLSRC_XOSC_gc, 8 );
    2118:	80 ec       	ldi	r24, 0xC0	; 192
    211a:	68 e0       	ldi	r22, 0x08	; 8
    211c:	0e 94 dd 0a 	call	0x15ba	; 0x15ba <CLKSYS_PLL_Config>
	CLKSYS_Enable( OSC_PLLEN_bm );
    2120:	80 91 50 00 	lds	r24, 0x0050
    2124:	80 61       	ori	r24, 0x10	; 16
    2126:	80 93 50 00 	sts	0x0050, r24
	CLKSYS_Prescalers_Config( CLK_PSADIV_1_gc, CLK_PSBCDIV_1_2_gc );
    212a:	80 e0       	ldi	r24, 0x00	; 0
    212c:	61 e0       	ldi	r22, 0x01	; 1
    212e:	0e 94 ed 0a 	call	0x15da	; 0x15da <CLKSYS_Prescalers_Config>
	do {} while ( CLKSYS_IsReady( OSC_PLLRDY_bm ) == 0 );
    2132:	80 91 51 00 	lds	r24, 0x0051
    2136:	84 ff       	sbrs	r24, 4
    2138:	fc cf       	rjmp	.-8      	; 0x2132 <InitClkSys+0x36>
	CLKSYS_Main_ClockSource_Select( CLK_SCLKSEL_PLL_gc );
    213a:	84 e0       	ldi	r24, 0x04	; 4
    213c:	0e 94 05 0b 	call	0x160a	; 0x160a <CLKSYS_Main_ClockSource_Select>
	CLKSYS_Disable( OSC_XOSCEN_bm );
    2140:	88 e0       	ldi	r24, 0x08	; 8
    2142:	0e 94 e3 0a 	call	0x15c6	; 0x15c6 <CLKSYS_Disable>
}
    2146:	08 95       	ret

00002148 <InitDevices>:
** 修订日期:
**------------------------------------------------------------------------------------------------------------------------
*************************************************************************************************************************/
void InitDevices(void)
{
	cli();
    2148:	f8 94       	cli

	InitClkSys();
    214a:	0e 94 7e 10 	call	0x20fc	; 0x20fc <InitClkSys>

	/* 用于四分屏器控制，MCU_Image */
	InitUsartC0(19200);
    214e:	60 e0       	ldi	r22, 0x00	; 0
    2150:	7b e4       	ldi	r23, 0x4B	; 75
    2152:	80 e0       	ldi	r24, 0x00	; 0
    2154:	90 e0       	ldi	r25, 0x00	; 0
    2156:	0e 94 75 15 	call	0x2aea	; 0x2aea <InitUsartC0>

	/* 用于设备总线控制，MCU_ARM */
	InitUsartC1(4800);
    215a:	60 ec       	ldi	r22, 0xC0	; 192
    215c:	72 e1       	ldi	r23, 0x12	; 18
    215e:	80 e0       	ldi	r24, 0x00	; 0
    2160:	90 e0       	ldi	r25, 0x00	; 0
    2162:	0e 94 30 15 	call	0x2a60	; 0x2a60 <InitUsartC1>

	/* 用于左电机驱动控制，MCU_ML */
	InitUsartD0(19200);
    2166:	60 e0       	ldi	r22, 0x00	; 0
    2168:	7b e4       	ldi	r23, 0x4B	; 75
    216a:	80 e0       	ldi	r24, 0x00	; 0
    216c:	90 e0       	ldi	r25, 0x00	; 0
    216e:	0e 94 e8 14 	call	0x29d0	; 0x29d0 <InitUsartD0>

	/* 用于右电机驱动控制，MCU_MR */
	InitUsartD1(19200);
    2172:	60 e0       	ldi	r22, 0x00	; 0
    2174:	7b e4       	ldi	r23, 0x4B	; 75
    2176:	80 e0       	ldi	r24, 0x00	; 0
    2178:	90 e0       	ldi	r25, 0x00	; 0
    217a:	0e 94 a3 14 	call	0x2946	; 0x2946 <InitUsartD1>

	/* 用于无线控制，MCU_RC  */
	InitUsartE0(19200);
    217e:	60 e0       	ldi	r22, 0x00	; 0
    2180:	7b e4       	ldi	r23, 0x4B	; 75
    2182:	80 e0       	ldi	r24, 0x00	; 0
    2184:	90 e0       	ldi	r25, 0x00	; 0
    2186:	0e 94 5e 14 	call	0x28bc	; 0x28bc <InitUsartE0>

	/* 用于有线控制, MCU_RC1 */
	InitUsartE1(19200);
    218a:	60 e0       	ldi	r22, 0x00	; 0
    218c:	7b e4       	ldi	r23, 0x4B	; 75
    218e:	80 e0       	ldi	r24, 0x00	; 0
    2190:	90 e0       	ldi	r25, 0x00	; 0
    2192:	0e 94 16 14 	call	0x282c	; 0x282c <InitUsartE1>

	/* 用于外接串行控制， MCU_EX */
	InitUsartF0(19200);
    2196:	60 e0       	ldi	r22, 0x00	; 0
    2198:	7b e4       	ldi	r23, 0x4B	; 75
    219a:	80 e0       	ldi	r24, 0x00	; 0
    219c:	90 e0       	ldi	r25, 0x00	; 0
    219e:	0e 94 d1 13 	call	0x27a2	; 0x27a2 <InitUsartF0>

	/* 用于串行数据接收控制 */
	InitTCD0();
    21a2:	0e 94 02 11 	call	0x2204	; 0x2204 <InitTCD0>

	/* 用于无线传输，发送延时控制 */
	InitTCD1();
    21a6:	0e 94 f6 10 	call	0x21ec	; 0x21ec <InitTCD1>


	/* Enable all interrupt levels. */
	PMIC_SetVectorLocationToApplication();
    21aa:	0e 94 bb 0c 	call	0x1976	; 0x1976 <PMIC_SetVectorLocationToApplication>
	PMIC_EnableLowLevel();
    21ae:	e0 ea       	ldi	r30, 0xA0	; 160
    21b0:	f0 e0       	ldi	r31, 0x00	; 0
    21b2:	82 81       	ldd	r24, Z+2	; 0x02
    21b4:	81 60       	ori	r24, 0x01	; 1
    21b6:	82 83       	std	Z+2, r24	; 0x02
	PMIC_EnableMediumLevel();
    21b8:	82 81       	ldd	r24, Z+2	; 0x02
    21ba:	82 60       	ori	r24, 0x02	; 2
    21bc:	82 83       	std	Z+2, r24	; 0x02
	PMIC_EnableHighLevel();
    21be:	82 81       	ldd	r24, Z+2	; 0x02
    21c0:	84 60       	ori	r24, 0x04	; 4
    21c2:	82 83       	std	Z+2, r24	; 0x02

	/**********指示灯操作**************/
	PORTE.DIRSET  = PIN4_bm;
    21c4:	e0 e8       	ldi	r30, 0x80	; 128
    21c6:	f6 e0       	ldi	r31, 0x06	; 6
    21c8:	80 e1       	ldi	r24, 0x10	; 16
    21ca:	81 83       	std	Z+1, r24	; 0x01
	PORTE.OUTCLR  = PIN4_bm;
    21cc:	86 83       	std	Z+6, r24	; 0x06

	PORTE.DIRSET  = PIN5_bm;
    21ce:	80 e2       	ldi	r24, 0x20	; 32
    21d0:	81 83       	std	Z+1, r24	; 0x01
	PORTE.OUTCLR  = PIN5_bm;
    21d2:	86 83       	std	Z+6, r24	; 0x06

	/* 设备总线的RS485发送端控制，设置输出，并使能无效 */
	PORTC.DIRSET  = PIN1_bm;
    21d4:	a0 e4       	ldi	r26, 0x40	; 64
    21d6:	b6 e0       	ldi	r27, 0x06	; 6
    21d8:	82 e0       	ldi	r24, 0x02	; 2
    21da:	11 96       	adiw	r26, 0x01	; 1
    21dc:	8c 93       	st	X, r24
    21de:	11 97       	sbiw	r26, 0x01	; 1
	PORTC.OUTCLR  = PIN1_bm;
    21e0:	16 96       	adiw	r26, 0x06	; 6
    21e2:	8c 93       	st	X, r24

	/* 有线控制的RS485发送端控制，设置输出，并使能无效 */
	PORTE.DIRSET  = PIN1_bm;
    21e4:	81 83       	std	Z+1, r24	; 0x01
	PORTE.OUTCLR  = PIN1_bm;
    21e6:	86 83       	std	Z+6, r24	; 0x06

	/* Enable global interrupts. */
	sei();
    21e8:	78 94       	sei
}
    21ea:	08 95       	ret

000021ec <InitTCD1>:
**------------------------------------------------------------------------------------------------------------------------
*************************************************************************************************************************/
void InitTCD1(void)
{
	/* Set period ( TOP value ). */
	TC_SetPeriod( &TCD1, (0x07D0 - 1) );
    21ec:	8f ec       	ldi	r24, 0xCF	; 207
    21ee:	97 e0       	ldi	r25, 0x07	; 7
    21f0:	e0 e4       	ldi	r30, 0x40	; 64
    21f2:	f9 e0       	ldi	r31, 0x09	; 9
    21f4:	86 a3       	std	Z+38, r24	; 0x26
    21f6:	97 a3       	std	Z+39, r25	; 0x27

	/* Enable overflow interrupt at low level */
	TC1_SetOverflowIntLevel( &TCD1, TC_OVFINTLVL_LO_gc );
    21f8:	80 e4       	ldi	r24, 0x40	; 64
    21fa:	99 e0       	ldi	r25, 0x09	; 9
    21fc:	61 e0       	ldi	r22, 0x01	; 1
    21fe:	0e 94 c0 09 	call	0x1380	; 0x1380 <TC1_SetOverflowIntLevel>

	/* Start Timer/Counter. */
	//
}
    2202:	08 95       	ret

00002204 <InitTCD0>:
**------------------------------------------------------------------------------------------------------------------------
*************************************************************************************************************************/
void InitTCD0(void)
{
	/* Set period ( TOP value ). */
	TC_SetPeriod( &TCD0, (0x01F4 - 1) );
    2204:	83 ef       	ldi	r24, 0xF3	; 243
    2206:	91 e0       	ldi	r25, 0x01	; 1
    2208:	e0 e0       	ldi	r30, 0x00	; 0
    220a:	f9 e0       	ldi	r31, 0x09	; 9
    220c:	86 a3       	std	Z+38, r24	; 0x26
    220e:	97 a3       	std	Z+39, r25	; 0x27

	/* Enable overflow interrupt at low level */
	TC0_SetOverflowIntLevel( &TCD0, TC_OVFINTLVL_LO_gc );
    2210:	80 e0       	ldi	r24, 0x00	; 0
    2212:	99 e0       	ldi	r25, 0x09	; 9
    2214:	61 e0       	ldi	r22, 0x01	; 1
    2216:	0e 94 ba 09 	call	0x1374	; 0x1374 <TC0_SetOverflowIntLevel>
	/* Enable CCA interrupt. */
//	TC0_SetCCAIntLevel( &TCD0, TC_CCAINTLVL_LO_gc );

	/* Start Timer/Counter. */
//	TC0_ConfigClockSource( &TCD0, TC_CLKSEL_DIV64_gc );
}
    221a:	08 95       	ret

0000221c <SetBaudRate>:

static int16 BaudRate_A,BaudRate_B;

static void SetBaudRate(uint32 BaudRate)
{
	switch(BaudRate)
    221c:	60 38       	cpi	r22, 0x80	; 128
    221e:	25 e2       	ldi	r18, 0x25	; 37
    2220:	72 07       	cpc	r23, r18
    2222:	20 e0       	ldi	r18, 0x00	; 0
    2224:	82 07       	cpc	r24, r18
    2226:	20 e0       	ldi	r18, 0x00	; 0
    2228:	92 07       	cpc	r25, r18
    222a:	b1 f0       	breq	.+44     	; 0x2258 <SetBaudRate+0x3c>
    222c:	60 30       	cpi	r22, 0x00	; 0
    222e:	2b e4       	ldi	r18, 0x4B	; 75
    2230:	72 07       	cpc	r23, r18
    2232:	20 e0       	ldi	r18, 0x00	; 0
    2234:	82 07       	cpc	r24, r18
    2236:	20 e0       	ldi	r18, 0x00	; 0
    2238:	92 07       	cpc	r25, r18
    223a:	d9 f0       	breq	.+54     	; 0x2272 <SetBaudRate+0x56>
    223c:	60 5c       	subi	r22, 0xC0	; 192
    223e:	72 41       	sbci	r23, 0x12	; 18
    2240:	80 40       	sbci	r24, 0x00	; 0
    2242:	90 40       	sbci	r25, 0x00	; 0
    2244:	11 f5       	brne	.+68     	; 0x228a <SetBaudRate+0x6e>
	{
	case 4800:
		BaudRate_A = 3325;
    2246:	8d ef       	ldi	r24, 0xFD	; 253
    2248:	9c e0       	ldi	r25, 0x0C	; 12
    224a:	80 93 d3 20 	sts	0x20D3, r24
    224e:	90 93 d4 20 	sts	0x20D4, r25
		BaudRate_B = -3;
    2252:	8d ef       	ldi	r24, 0xFD	; 253
    2254:	9f ef       	ldi	r25, 0xFF	; 255
    2256:	08 c0       	rjmp	.+16     	; 0x2268 <SetBaudRate+0x4c>

		break;

	case 9600:
		BaudRate_A = 3317;
    2258:	85 ef       	ldi	r24, 0xF5	; 245
    225a:	9c e0       	ldi	r25, 0x0C	; 12
    225c:	80 93 d3 20 	sts	0x20D3, r24
    2260:	90 93 d4 20 	sts	0x20D4, r25
		BaudRate_B = -4;
    2264:	8c ef       	ldi	r24, 0xFC	; 252
    2266:	9f ef       	ldi	r25, 0xFF	; 255
    2268:	80 93 d5 20 	sts	0x20D5, r24
    226c:	90 93 d6 20 	sts	0x20D6, r25
    2270:	08 95       	ret
		break;
	case 19200:
		BaudRate_A = 3301;
    2272:	85 ee       	ldi	r24, 0xE5	; 229
    2274:	9c e0       	ldi	r25, 0x0C	; 12
    2276:	80 93 d3 20 	sts	0x20D3, r24
    227a:	90 93 d4 20 	sts	0x20D4, r25
		BaudRate_B = -5;
    227e:	8b ef       	ldi	r24, 0xFB	; 251
    2280:	9f ef       	ldi	r25, 0xFF	; 255
    2282:	80 93 d5 20 	sts	0x20D5, r24
    2286:	90 93 d6 20 	sts	0x20D6, r25
    228a:	08 95       	ret

0000228c <USART_DataRegEmpty_D0>:
 *  is empty. Argument is pointer to USART (USART_data_t).
 *
 *  \param usart_data      The USART_data_t struct instance.
 */
void USART_DataRegEmpty_D0(USART_data_t * usart_data)
{
    228c:	cf 93       	push	r28
    228e:	df 93       	push	r29
    2290:	dc 01       	movw	r26, r24
	USART_Buffer_t * bufPtr;
	bufPtr = &usart_data->buffer;

	/* Check if all data is transmitted. */
	uint8_t tempTX_Tail = usart_data->buffer.TX_Tail;
    2292:	ec 01       	movw	r28, r24
    2294:	ca 5b       	subi	r28, 0xBA	; 186
    2296:	df 4f       	sbci	r29, 0xFF	; 255
    2298:	98 81       	ld	r25, Y
	if (bufPtr->TX_Head == tempTX_Tail){
    229a:	ab 5b       	subi	r26, 0xBB	; 187
    229c:	bf 4f       	sbci	r27, 0xFF	; 255
    229e:	8c 91       	ld	r24, X
    22a0:	a5 54       	subi	r26, 0x45	; 69
    22a2:	b0 40       	sbci	r27, 0x00	; 0
    22a4:	89 17       	cp	r24, r25
    22a6:	31 f4       	brne	.+12     	; 0x22b4 <USART_DataRegEmpty_D0+0x28>
	    /* Disable DRE interrupts. */
		uint8_t tempCTRLA = usart_data->usart->CTRLA;
    22a8:	ed 91       	ld	r30, X+
    22aa:	fc 91       	ld	r31, X
    22ac:	83 81       	ldd	r24, Z+3	; 0x03
		tempCTRLA = (tempCTRLA & ~USART_DREINTLVL_gm) | USART_DREINTLVL_OFF_gc;
    22ae:	8c 7f       	andi	r24, 0xFC	; 252
		usart_data->usart->CTRLA = tempCTRLA;
    22b0:	83 83       	std	Z+3, r24	; 0x03
    22b2:	10 c0       	rjmp	.+32     	; 0x22d4 <USART_DataRegEmpty_D0+0x48>

	}else{
		/* Start transmitting. */
		USARTD0_RS485_TX_EN;
    22b4:	82 e0       	ldi	r24, 0x02	; 2
    22b6:	e0 e6       	ldi	r30, 0x60	; 96
    22b8:	f6 e0       	ldi	r31, 0x06	; 6
    22ba:	85 83       	std	Z+5, r24	; 0x05
		uint8_t data = bufPtr->TX[usart_data->buffer.TX_Tail];
    22bc:	88 81       	ld	r24, Y
    22be:	fd 01       	movw	r30, r26
    22c0:	e8 0f       	add	r30, r24
    22c2:	f1 1d       	adc	r31, r1
    22c4:	83 a1       	ldd	r24, Z+35	; 0x23
		usart_data->usart->DATA = data;
    22c6:	ed 91       	ld	r30, X+
    22c8:	fc 91       	ld	r31, X
    22ca:	80 83       	st	Z, r24

		/* Advance buffer tail. */
		bufPtr->TX_Tail = (bufPtr->TX_Tail + 1) & USART_TX_BUFFER_MASK;
    22cc:	88 81       	ld	r24, Y
    22ce:	8f 5f       	subi	r24, 0xFF	; 255
    22d0:	8f 71       	andi	r24, 0x1F	; 31
    22d2:	88 83       	st	Y, r24
	}
}
    22d4:	df 91       	pop	r29
    22d6:	cf 91       	pop	r28
    22d8:	08 95       	ret

000022da <__vector_89>:
 *  Data register empty  interrupt service routine.
 *  Calls the common data register empty complete handler with pointer to the
 *  correct USART as argument.
 */
ISR(USARTD0_DRE_vect)
{
    22da:	1f 92       	push	r1
    22dc:	0f 92       	push	r0
    22de:	0f b6       	in	r0, 0x3f	; 63
    22e0:	0f 92       	push	r0
    22e2:	0b b6       	in	r0, 0x3b	; 59
    22e4:	0f 92       	push	r0
    22e6:	11 24       	eor	r1, r1
    22e8:	2f 93       	push	r18
    22ea:	3f 93       	push	r19
    22ec:	4f 93       	push	r20
    22ee:	5f 93       	push	r21
    22f0:	6f 93       	push	r22
    22f2:	7f 93       	push	r23
    22f4:	8f 93       	push	r24
    22f6:	9f 93       	push	r25
    22f8:	af 93       	push	r26
    22fa:	bf 93       	push	r27
    22fc:	ef 93       	push	r30
    22fe:	ff 93       	push	r31
	USART_DataRegEmpty_D0(&USART_data_D0);
    2300:	81 e8       	ldi	r24, 0x81	; 129
    2302:	92 e2       	ldi	r25, 0x22	; 34
    2304:	0e 94 46 11 	call	0x228c	; 0x228c <USART_DataRegEmpty_D0>
}
    2308:	ff 91       	pop	r31
    230a:	ef 91       	pop	r30
    230c:	bf 91       	pop	r27
    230e:	af 91       	pop	r26
    2310:	9f 91       	pop	r25
    2312:	8f 91       	pop	r24
    2314:	7f 91       	pop	r23
    2316:	6f 91       	pop	r22
    2318:	5f 91       	pop	r21
    231a:	4f 91       	pop	r20
    231c:	3f 91       	pop	r19
    231e:	2f 91       	pop	r18
    2320:	0f 90       	pop	r0
    2322:	0b be       	out	0x3b, r0	; 59
    2324:	0f 90       	pop	r0
    2326:	0f be       	out	0x3f, r0	; 63
    2328:	0f 90       	pop	r0
    232a:	1f 90       	pop	r1
    232c:	18 95       	reti

0000232e <__vector_90>:
/*! \brief Transmission Complete Interrupt service routine.
 *	2011-06-15  由吴琳改写，增加RS485控制，发送完后关断发送使能
 *
 */
ISR(USARTD0_TXC_vect)
{
    232e:	1f 92       	push	r1
    2330:	0f 92       	push	r0
    2332:	0f b6       	in	r0, 0x3f	; 63
    2334:	0f 92       	push	r0
    2336:	0b b6       	in	r0, 0x3b	; 59
    2338:	0f 92       	push	r0
    233a:	11 24       	eor	r1, r1
    233c:	8f 93       	push	r24
    233e:	ef 93       	push	r30
    2340:	ff 93       	push	r31
	USARTD0_RS485_TX_DIS;
    2342:	82 e0       	ldi	r24, 0x02	; 2
    2344:	e0 e6       	ldi	r30, 0x60	; 96
    2346:	f6 e0       	ldi	r31, 0x06	; 6
    2348:	86 83       	std	Z+6, r24	; 0x06
}
    234a:	ff 91       	pop	r31
    234c:	ef 91       	pop	r30
    234e:	8f 91       	pop	r24
    2350:	0f 90       	pop	r0
    2352:	0b be       	out	0x3b, r0	; 59
    2354:	0f 90       	pop	r0
    2356:	0f be       	out	0x3f, r0	; 63
    2358:	0f 90       	pop	r0
    235a:	1f 90       	pop	r1
    235c:	18 95       	reti

0000235e <__vector_62>:
 *  Data register empty  interrupt service routine.
 *  Calls the common data register empty complete handler with pointer to the
 *  correct USART as argument.
 */
ISR(USARTE1_DRE_vect)
{
    235e:	1f 92       	push	r1
    2360:	0f 92       	push	r0
    2362:	0f b6       	in	r0, 0x3f	; 63
    2364:	0f 92       	push	r0
    2366:	0b b6       	in	r0, 0x3b	; 59
    2368:	0f 92       	push	r0
    236a:	11 24       	eor	r1, r1
    236c:	2f 93       	push	r18
    236e:	3f 93       	push	r19
    2370:	4f 93       	push	r20
    2372:	5f 93       	push	r21
    2374:	6f 93       	push	r22
    2376:	7f 93       	push	r23
    2378:	8f 93       	push	r24
    237a:	9f 93       	push	r25
    237c:	af 93       	push	r26
    237e:	bf 93       	push	r27
    2380:	ef 93       	push	r30
    2382:	ff 93       	push	r31
	USART_DataRegEmpty(&USART_data_E1);
    2384:	83 ef       	ldi	r24, 0xF3	; 243
    2386:	91 e2       	ldi	r25, 0x21	; 33
    2388:	0e 94 8b 0d 	call	0x1b16	; 0x1b16 <USART_DataRegEmpty>
}
    238c:	ff 91       	pop	r31
    238e:	ef 91       	pop	r30
    2390:	bf 91       	pop	r27
    2392:	af 91       	pop	r26
    2394:	9f 91       	pop	r25
    2396:	8f 91       	pop	r24
    2398:	7f 91       	pop	r23
    239a:	6f 91       	pop	r22
    239c:	5f 91       	pop	r21
    239e:	4f 91       	pop	r20
    23a0:	3f 91       	pop	r19
    23a2:	2f 91       	pop	r18
    23a4:	0f 90       	pop	r0
    23a6:	0b be       	out	0x3b, r0	; 59
    23a8:	0f 90       	pop	r0
    23aa:	0f be       	out	0x3f, r0	; 63
    23ac:	0f 90       	pop	r0
    23ae:	1f 90       	pop	r1
    23b0:	18 95       	reti

000023b2 <__vector_59>:
 *  Data register empty  interrupt service routine.
 *  Calls the common data register empty complete handler with pointer to the
 *  correct USART as argument.
 */
ISR(USARTE0_DRE_vect)
{
    23b2:	1f 92       	push	r1
    23b4:	0f 92       	push	r0
    23b6:	0f b6       	in	r0, 0x3f	; 63
    23b8:	0f 92       	push	r0
    23ba:	0b b6       	in	r0, 0x3b	; 59
    23bc:	0f 92       	push	r0
    23be:	11 24       	eor	r1, r1
    23c0:	2f 93       	push	r18
    23c2:	3f 93       	push	r19
    23c4:	4f 93       	push	r20
    23c6:	5f 93       	push	r21
    23c8:	6f 93       	push	r22
    23ca:	7f 93       	push	r23
    23cc:	8f 93       	push	r24
    23ce:	9f 93       	push	r25
    23d0:	af 93       	push	r26
    23d2:	bf 93       	push	r27
    23d4:	ef 93       	push	r30
    23d6:	ff 93       	push	r31
	USART_DataRegEmpty(&USART_data_E0);
    23d8:	87 ed       	ldi	r24, 0xD7	; 215
    23da:	90 e2       	ldi	r25, 0x20	; 32
    23dc:	0e 94 8b 0d 	call	0x1b16	; 0x1b16 <USART_DataRegEmpty>
}
    23e0:	ff 91       	pop	r31
    23e2:	ef 91       	pop	r30
    23e4:	bf 91       	pop	r27
    23e6:	af 91       	pop	r26
    23e8:	9f 91       	pop	r25
    23ea:	8f 91       	pop	r24
    23ec:	7f 91       	pop	r23
    23ee:	6f 91       	pop	r22
    23f0:	5f 91       	pop	r21
    23f2:	4f 91       	pop	r20
    23f4:	3f 91       	pop	r19
    23f6:	2f 91       	pop	r18
    23f8:	0f 90       	pop	r0
    23fa:	0b be       	out	0x3b, r0	; 59
    23fc:	0f 90       	pop	r0
    23fe:	0f be       	out	0x3f, r0	; 63
    2400:	0f 90       	pop	r0
    2402:	1f 90       	pop	r1
    2404:	18 95       	reti

00002406 <__vector_92>:
 *  Data register empty  interrupt service routine.
 *  Calls the common data register empty complete handler with pointer to the
 *  correct USART as argument.
 */
ISR(USARTD1_DRE_vect)
{
    2406:	1f 92       	push	r1
    2408:	0f 92       	push	r0
    240a:	0f b6       	in	r0, 0x3f	; 63
    240c:	0f 92       	push	r0
    240e:	0b b6       	in	r0, 0x3b	; 59
    2410:	0f 92       	push	r0
    2412:	11 24       	eor	r1, r1
    2414:	2f 93       	push	r18
    2416:	3f 93       	push	r19
    2418:	4f 93       	push	r20
    241a:	5f 93       	push	r21
    241c:	6f 93       	push	r22
    241e:	7f 93       	push	r23
    2420:	8f 93       	push	r24
    2422:	9f 93       	push	r25
    2424:	af 93       	push	r26
    2426:	bf 93       	push	r27
    2428:	ef 93       	push	r30
    242a:	ff 93       	push	r31
	USART_DataRegEmpty(&USART_data_D1);
    242c:	85 e6       	ldi	r24, 0x65	; 101
    242e:	91 e2       	ldi	r25, 0x21	; 33
    2430:	0e 94 8b 0d 	call	0x1b16	; 0x1b16 <USART_DataRegEmpty>
}
    2434:	ff 91       	pop	r31
    2436:	ef 91       	pop	r30
    2438:	bf 91       	pop	r27
    243a:	af 91       	pop	r26
    243c:	9f 91       	pop	r25
    243e:	8f 91       	pop	r24
    2440:	7f 91       	pop	r23
    2442:	6f 91       	pop	r22
    2444:	5f 91       	pop	r21
    2446:	4f 91       	pop	r20
    2448:	3f 91       	pop	r19
    244a:	2f 91       	pop	r18
    244c:	0f 90       	pop	r0
    244e:	0b be       	out	0x3b, r0	; 59
    2450:	0f 90       	pop	r0
    2452:	0f be       	out	0x3f, r0	; 63
    2454:	0f 90       	pop	r0
    2456:	1f 90       	pop	r1
    2458:	18 95       	reti

0000245a <__vector_29>:
 *  Data register empty  interrupt service routine.
 *  Calls the common data register empty complete handler with pointer to the
 *  correct USART as argument.
 */
ISR(USARTC1_DRE_vect)
{
    245a:	1f 92       	push	r1
    245c:	0f 92       	push	r0
    245e:	0f b6       	in	r0, 0x3f	; 63
    2460:	0f 92       	push	r0
    2462:	0b b6       	in	r0, 0x3b	; 59
    2464:	0f 92       	push	r0
    2466:	11 24       	eor	r1, r1
    2468:	2f 93       	push	r18
    246a:	3f 93       	push	r19
    246c:	4f 93       	push	r20
    246e:	5f 93       	push	r21
    2470:	6f 93       	push	r22
    2472:	7f 93       	push	r23
    2474:	8f 93       	push	r24
    2476:	9f 93       	push	r25
    2478:	af 93       	push	r26
    247a:	bf 93       	push	r27
    247c:	ef 93       	push	r30
    247e:	ff 93       	push	r31
	USART_DataRegEmpty(&USART_data_C1);
    2480:	8e e1       	ldi	r24, 0x1E	; 30
    2482:	91 e2       	ldi	r25, 0x21	; 33
    2484:	0e 94 8b 0d 	call	0x1b16	; 0x1b16 <USART_DataRegEmpty>
}
    2488:	ff 91       	pop	r31
    248a:	ef 91       	pop	r30
    248c:	bf 91       	pop	r27
    248e:	af 91       	pop	r26
    2490:	9f 91       	pop	r25
    2492:	8f 91       	pop	r24
    2494:	7f 91       	pop	r23
    2496:	6f 91       	pop	r22
    2498:	5f 91       	pop	r21
    249a:	4f 91       	pop	r20
    249c:	3f 91       	pop	r19
    249e:	2f 91       	pop	r18
    24a0:	0f 90       	pop	r0
    24a2:	0b be       	out	0x3b, r0	; 59
    24a4:	0f 90       	pop	r0
    24a6:	0f be       	out	0x3f, r0	; 63
    24a8:	0f 90       	pop	r0
    24aa:	1f 90       	pop	r1
    24ac:	18 95       	reti

000024ae <__vector_26>:
 *  Data register empty  interrupt service routine.
 *  Calls the common data register empty complete handler with pointer to the
 *  correct USART as argument.
 */
ISR(USARTC0_DRE_vect)
{
    24ae:	1f 92       	push	r1
    24b0:	0f 92       	push	r0
    24b2:	0f b6       	in	r0, 0x3f	; 63
    24b4:	0f 92       	push	r0
    24b6:	0b b6       	in	r0, 0x3b	; 59
    24b8:	0f 92       	push	r0
    24ba:	11 24       	eor	r1, r1
    24bc:	2f 93       	push	r18
    24be:	3f 93       	push	r19
    24c0:	4f 93       	push	r20
    24c2:	5f 93       	push	r21
    24c4:	6f 93       	push	r22
    24c6:	7f 93       	push	r23
    24c8:	8f 93       	push	r24
    24ca:	9f 93       	push	r25
    24cc:	af 93       	push	r26
    24ce:	bf 93       	push	r27
    24d0:	ef 93       	push	r30
    24d2:	ff 93       	push	r31
	USART_DataRegEmpty(&USART_data_C0);
    24d4:	8c ea       	ldi	r24, 0xAC	; 172
    24d6:	91 e2       	ldi	r25, 0x21	; 33
    24d8:	0e 94 8b 0d 	call	0x1b16	; 0x1b16 <USART_DataRegEmpty>
}
    24dc:	ff 91       	pop	r31
    24de:	ef 91       	pop	r30
    24e0:	bf 91       	pop	r27
    24e2:	af 91       	pop	r26
    24e4:	9f 91       	pop	r25
    24e6:	8f 91       	pop	r24
    24e8:	7f 91       	pop	r23
    24ea:	6f 91       	pop	r22
    24ec:	5f 91       	pop	r21
    24ee:	4f 91       	pop	r20
    24f0:	3f 91       	pop	r19
    24f2:	2f 91       	pop	r18
    24f4:	0f 90       	pop	r0
    24f6:	0b be       	out	0x3b, r0	; 59
    24f8:	0f 90       	pop	r0
    24fa:	0f be       	out	0x3f, r0	; 63
    24fc:	0f 90       	pop	r0
    24fe:	1f 90       	pop	r1
    2500:	18 95       	reti

00002502 <__vector_120>:
 *  Data register empty  interrupt service routine.
 *  Calls the common data register empty complete handler with pointer to the
 *  correct USART as argument.
 */
ISR(USARTF0_DRE_vect)
{
    2502:	1f 92       	push	r1
    2504:	0f 92       	push	r0
    2506:	0f b6       	in	r0, 0x3f	; 63
    2508:	0f 92       	push	r0
    250a:	0b b6       	in	r0, 0x3b	; 59
    250c:	0f 92       	push	r0
    250e:	11 24       	eor	r1, r1
    2510:	2f 93       	push	r18
    2512:	3f 93       	push	r19
    2514:	4f 93       	push	r20
    2516:	5f 93       	push	r21
    2518:	6f 93       	push	r22
    251a:	7f 93       	push	r23
    251c:	8f 93       	push	r24
    251e:	9f 93       	push	r25
    2520:	af 93       	push	r26
    2522:	bf 93       	push	r27
    2524:	ef 93       	push	r30
    2526:	ff 93       	push	r31
	USART_DataRegEmpty(&USART_data_F0);
    2528:	8a e3       	ldi	r24, 0x3A	; 58
    252a:	92 e2       	ldi	r25, 0x22	; 34
    252c:	0e 94 8b 0d 	call	0x1b16	; 0x1b16 <USART_DataRegEmpty>
}
    2530:	ff 91       	pop	r31
    2532:	ef 91       	pop	r30
    2534:	bf 91       	pop	r27
    2536:	af 91       	pop	r26
    2538:	9f 91       	pop	r25
    253a:	8f 91       	pop	r24
    253c:	7f 91       	pop	r23
    253e:	6f 91       	pop	r22
    2540:	5f 91       	pop	r21
    2542:	4f 91       	pop	r20
    2544:	3f 91       	pop	r19
    2546:	2f 91       	pop	r18
    2548:	0f 90       	pop	r0
    254a:	0b be       	out	0x3b, r0	; 59
    254c:	0f 90       	pop	r0
    254e:	0f be       	out	0x3f, r0	; 63
    2550:	0f 90       	pop	r0
    2552:	1f 90       	pop	r1
    2554:	18 95       	reti

00002556 <__vector_61>:
 *  Receive complete interrupt service routine.
 *  Calls the common receive complete handler with pointer to the correct USART
 *  as argument.
 */
ISR(USARTE1_RXC_vect)
{
    2556:	1f 92       	push	r1
    2558:	0f 92       	push	r0
    255a:	0f b6       	in	r0, 0x3f	; 63
    255c:	0f 92       	push	r0
    255e:	0b b6       	in	r0, 0x3b	; 59
    2560:	0f 92       	push	r0
    2562:	11 24       	eor	r1, r1
    2564:	2f 93       	push	r18
    2566:	3f 93       	push	r19
    2568:	4f 93       	push	r20
    256a:	5f 93       	push	r21
    256c:	6f 93       	push	r22
    256e:	7f 93       	push	r23
    2570:	8f 93       	push	r24
    2572:	9f 93       	push	r25
    2574:	af 93       	push	r26
    2576:	bf 93       	push	r27
    2578:	ef 93       	push	r30
    257a:	ff 93       	push	r31
	USART_RXComplete(&USART_data_E1);
    257c:	83 ef       	ldi	r24, 0xF3	; 243
    257e:	91 e2       	ldi	r25, 0x21	; 33
    2580:	0e 94 6b 0d 	call	0x1ad6	; 0x1ad6 <USART_RXComplete>
}
    2584:	ff 91       	pop	r31
    2586:	ef 91       	pop	r30
    2588:	bf 91       	pop	r27
    258a:	af 91       	pop	r26
    258c:	9f 91       	pop	r25
    258e:	8f 91       	pop	r24
    2590:	7f 91       	pop	r23
    2592:	6f 91       	pop	r22
    2594:	5f 91       	pop	r21
    2596:	4f 91       	pop	r20
    2598:	3f 91       	pop	r19
    259a:	2f 91       	pop	r18
    259c:	0f 90       	pop	r0
    259e:	0b be       	out	0x3b, r0	; 59
    25a0:	0f 90       	pop	r0
    25a2:	0f be       	out	0x3f, r0	; 63
    25a4:	0f 90       	pop	r0
    25a6:	1f 90       	pop	r1
    25a8:	18 95       	reti

000025aa <__vector_58>:
 *  Receive complete interrupt service routine.
 *  Calls the common receive complete handler with pointer to the correct USART
 *  as argument.
 */
ISR(USARTE0_RXC_vect)
{
    25aa:	1f 92       	push	r1
    25ac:	0f 92       	push	r0
    25ae:	0f b6       	in	r0, 0x3f	; 63
    25b0:	0f 92       	push	r0
    25b2:	0b b6       	in	r0, 0x3b	; 59
    25b4:	0f 92       	push	r0
    25b6:	11 24       	eor	r1, r1
    25b8:	2f 93       	push	r18
    25ba:	3f 93       	push	r19
    25bc:	4f 93       	push	r20
    25be:	5f 93       	push	r21
    25c0:	6f 93       	push	r22
    25c2:	7f 93       	push	r23
    25c4:	8f 93       	push	r24
    25c6:	9f 93       	push	r25
    25c8:	af 93       	push	r26
    25ca:	bf 93       	push	r27
    25cc:	ef 93       	push	r30
    25ce:	ff 93       	push	r31
	USART_RXComplete(&USART_data_E0);
    25d0:	87 ed       	ldi	r24, 0xD7	; 215
    25d2:	90 e2       	ldi	r25, 0x20	; 32
    25d4:	0e 94 6b 0d 	call	0x1ad6	; 0x1ad6 <USART_RXComplete>
}
    25d8:	ff 91       	pop	r31
    25da:	ef 91       	pop	r30
    25dc:	bf 91       	pop	r27
    25de:	af 91       	pop	r26
    25e0:	9f 91       	pop	r25
    25e2:	8f 91       	pop	r24
    25e4:	7f 91       	pop	r23
    25e6:	6f 91       	pop	r22
    25e8:	5f 91       	pop	r21
    25ea:	4f 91       	pop	r20
    25ec:	3f 91       	pop	r19
    25ee:	2f 91       	pop	r18
    25f0:	0f 90       	pop	r0
    25f2:	0b be       	out	0x3b, r0	; 59
    25f4:	0f 90       	pop	r0
    25f6:	0f be       	out	0x3f, r0	; 63
    25f8:	0f 90       	pop	r0
    25fa:	1f 90       	pop	r1
    25fc:	18 95       	reti

000025fe <__vector_91>:
 *  Receive complete interrupt service routine.
 *  Calls the common receive complete handler with pointer to the correct USART
 *  as argument.
 */
ISR(USARTD1_RXC_vect)
{
    25fe:	1f 92       	push	r1
    2600:	0f 92       	push	r0
    2602:	0f b6       	in	r0, 0x3f	; 63
    2604:	0f 92       	push	r0
    2606:	0b b6       	in	r0, 0x3b	; 59
    2608:	0f 92       	push	r0
    260a:	11 24       	eor	r1, r1
    260c:	2f 93       	push	r18
    260e:	3f 93       	push	r19
    2610:	4f 93       	push	r20
    2612:	5f 93       	push	r21
    2614:	6f 93       	push	r22
    2616:	7f 93       	push	r23
    2618:	8f 93       	push	r24
    261a:	9f 93       	push	r25
    261c:	af 93       	push	r26
    261e:	bf 93       	push	r27
    2620:	ef 93       	push	r30
    2622:	ff 93       	push	r31
	USART_RXComplete(&USART_data_D1);
    2624:	85 e6       	ldi	r24, 0x65	; 101
    2626:	91 e2       	ldi	r25, 0x21	; 33
    2628:	0e 94 6b 0d 	call	0x1ad6	; 0x1ad6 <USART_RXComplete>
}
    262c:	ff 91       	pop	r31
    262e:	ef 91       	pop	r30
    2630:	bf 91       	pop	r27
    2632:	af 91       	pop	r26
    2634:	9f 91       	pop	r25
    2636:	8f 91       	pop	r24
    2638:	7f 91       	pop	r23
    263a:	6f 91       	pop	r22
    263c:	5f 91       	pop	r21
    263e:	4f 91       	pop	r20
    2640:	3f 91       	pop	r19
    2642:	2f 91       	pop	r18
    2644:	0f 90       	pop	r0
    2646:	0b be       	out	0x3b, r0	; 59
    2648:	0f 90       	pop	r0
    264a:	0f be       	out	0x3f, r0	; 63
    264c:	0f 90       	pop	r0
    264e:	1f 90       	pop	r1
    2650:	18 95       	reti

00002652 <__vector_88>:
 *  Receive complete interrupt service routine.
 *  Calls the common receive complete handler with pointer to the correct USART
 *  as argument.
 */
ISR(USARTD0_RXC_vect)
{
    2652:	1f 92       	push	r1
    2654:	0f 92       	push	r0
    2656:	0f b6       	in	r0, 0x3f	; 63
    2658:	0f 92       	push	r0
    265a:	0b b6       	in	r0, 0x3b	; 59
    265c:	0f 92       	push	r0
    265e:	11 24       	eor	r1, r1
    2660:	2f 93       	push	r18
    2662:	3f 93       	push	r19
    2664:	4f 93       	push	r20
    2666:	5f 93       	push	r21
    2668:	6f 93       	push	r22
    266a:	7f 93       	push	r23
    266c:	8f 93       	push	r24
    266e:	9f 93       	push	r25
    2670:	af 93       	push	r26
    2672:	bf 93       	push	r27
    2674:	ef 93       	push	r30
    2676:	ff 93       	push	r31
	USART_RXComplete(&USART_data_D0);
    2678:	81 e8       	ldi	r24, 0x81	; 129
    267a:	92 e2       	ldi	r25, 0x22	; 34
    267c:	0e 94 6b 0d 	call	0x1ad6	; 0x1ad6 <USART_RXComplete>
}
    2680:	ff 91       	pop	r31
    2682:	ef 91       	pop	r30
    2684:	bf 91       	pop	r27
    2686:	af 91       	pop	r26
    2688:	9f 91       	pop	r25
    268a:	8f 91       	pop	r24
    268c:	7f 91       	pop	r23
    268e:	6f 91       	pop	r22
    2690:	5f 91       	pop	r21
    2692:	4f 91       	pop	r20
    2694:	3f 91       	pop	r19
    2696:	2f 91       	pop	r18
    2698:	0f 90       	pop	r0
    269a:	0b be       	out	0x3b, r0	; 59
    269c:	0f 90       	pop	r0
    269e:	0f be       	out	0x3f, r0	; 63
    26a0:	0f 90       	pop	r0
    26a2:	1f 90       	pop	r1
    26a4:	18 95       	reti

000026a6 <__vector_28>:
 *  Receive complete interrupt service routine.
 *  Calls the common receive complete handler with pointer to the correct USART
 *  as argument.
 */
ISR(USARTC1_RXC_vect)
{
    26a6:	1f 92       	push	r1
    26a8:	0f 92       	push	r0
    26aa:	0f b6       	in	r0, 0x3f	; 63
    26ac:	0f 92       	push	r0
    26ae:	0b b6       	in	r0, 0x3b	; 59
    26b0:	0f 92       	push	r0
    26b2:	11 24       	eor	r1, r1
    26b4:	2f 93       	push	r18
    26b6:	3f 93       	push	r19
    26b8:	4f 93       	push	r20
    26ba:	5f 93       	push	r21
    26bc:	6f 93       	push	r22
    26be:	7f 93       	push	r23
    26c0:	8f 93       	push	r24
    26c2:	9f 93       	push	r25
    26c4:	af 93       	push	r26
    26c6:	bf 93       	push	r27
    26c8:	ef 93       	push	r30
    26ca:	ff 93       	push	r31
	USART_RXComplete(&USART_data_C1);
    26cc:	8e e1       	ldi	r24, 0x1E	; 30
    26ce:	91 e2       	ldi	r25, 0x21	; 33
    26d0:	0e 94 6b 0d 	call	0x1ad6	; 0x1ad6 <USART_RXComplete>
}
    26d4:	ff 91       	pop	r31
    26d6:	ef 91       	pop	r30
    26d8:	bf 91       	pop	r27
    26da:	af 91       	pop	r26
    26dc:	9f 91       	pop	r25
    26de:	8f 91       	pop	r24
    26e0:	7f 91       	pop	r23
    26e2:	6f 91       	pop	r22
    26e4:	5f 91       	pop	r21
    26e6:	4f 91       	pop	r20
    26e8:	3f 91       	pop	r19
    26ea:	2f 91       	pop	r18
    26ec:	0f 90       	pop	r0
    26ee:	0b be       	out	0x3b, r0	; 59
    26f0:	0f 90       	pop	r0
    26f2:	0f be       	out	0x3f, r0	; 63
    26f4:	0f 90       	pop	r0
    26f6:	1f 90       	pop	r1
    26f8:	18 95       	reti

000026fa <__vector_25>:
 *  Receive complete interrupt service routine.
 *  Calls the common receive complete handler with pointer to the correct USART
 *  as argument.
 */
ISR(USARTC0_RXC_vect)
{
    26fa:	1f 92       	push	r1
    26fc:	0f 92       	push	r0
    26fe:	0f b6       	in	r0, 0x3f	; 63
    2700:	0f 92       	push	r0
    2702:	0b b6       	in	r0, 0x3b	; 59
    2704:	0f 92       	push	r0
    2706:	11 24       	eor	r1, r1
    2708:	2f 93       	push	r18
    270a:	3f 93       	push	r19
    270c:	4f 93       	push	r20
    270e:	5f 93       	push	r21
    2710:	6f 93       	push	r22
    2712:	7f 93       	push	r23
    2714:	8f 93       	push	r24
    2716:	9f 93       	push	r25
    2718:	af 93       	push	r26
    271a:	bf 93       	push	r27
    271c:	ef 93       	push	r30
    271e:	ff 93       	push	r31
	USART_RXComplete(&USART_data_C0);
    2720:	8c ea       	ldi	r24, 0xAC	; 172
    2722:	91 e2       	ldi	r25, 0x21	; 33
    2724:	0e 94 6b 0d 	call	0x1ad6	; 0x1ad6 <USART_RXComplete>
}
    2728:	ff 91       	pop	r31
    272a:	ef 91       	pop	r30
    272c:	bf 91       	pop	r27
    272e:	af 91       	pop	r26
    2730:	9f 91       	pop	r25
    2732:	8f 91       	pop	r24
    2734:	7f 91       	pop	r23
    2736:	6f 91       	pop	r22
    2738:	5f 91       	pop	r21
    273a:	4f 91       	pop	r20
    273c:	3f 91       	pop	r19
    273e:	2f 91       	pop	r18
    2740:	0f 90       	pop	r0
    2742:	0b be       	out	0x3b, r0	; 59
    2744:	0f 90       	pop	r0
    2746:	0f be       	out	0x3f, r0	; 63
    2748:	0f 90       	pop	r0
    274a:	1f 90       	pop	r1
    274c:	18 95       	reti

0000274e <__vector_119>:
 *  Receive complete interrupt service routine.
 *  Calls the common receive complete handler with pointer to the correct USART
 *  as argument.
 */
ISR(USARTF0_RXC_vect)
{
    274e:	1f 92       	push	r1
    2750:	0f 92       	push	r0
    2752:	0f b6       	in	r0, 0x3f	; 63
    2754:	0f 92       	push	r0
    2756:	0b b6       	in	r0, 0x3b	; 59
    2758:	0f 92       	push	r0
    275a:	11 24       	eor	r1, r1
    275c:	2f 93       	push	r18
    275e:	3f 93       	push	r19
    2760:	4f 93       	push	r20
    2762:	5f 93       	push	r21
    2764:	6f 93       	push	r22
    2766:	7f 93       	push	r23
    2768:	8f 93       	push	r24
    276a:	9f 93       	push	r25
    276c:	af 93       	push	r26
    276e:	bf 93       	push	r27
    2770:	ef 93       	push	r30
    2772:	ff 93       	push	r31
	USART_RXComplete(&USART_data_F0);
    2774:	8a e3       	ldi	r24, 0x3A	; 58
    2776:	92 e2       	ldi	r25, 0x22	; 34
    2778:	0e 94 6b 0d 	call	0x1ad6	; 0x1ad6 <USART_RXComplete>
}
    277c:	ff 91       	pop	r31
    277e:	ef 91       	pop	r30
    2780:	bf 91       	pop	r27
    2782:	af 91       	pop	r26
    2784:	9f 91       	pop	r25
    2786:	8f 91       	pop	r24
    2788:	7f 91       	pop	r23
    278a:	6f 91       	pop	r22
    278c:	5f 91       	pop	r21
    278e:	4f 91       	pop	r20
    2790:	3f 91       	pop	r19
    2792:	2f 91       	pop	r18
    2794:	0f 90       	pop	r0
    2796:	0b be       	out	0x3b, r0	; 59
    2798:	0f 90       	pop	r0
    279a:	0f be       	out	0x3f, r0	; 63
    279c:	0f 90       	pop	r0
    279e:	1f 90       	pop	r1
    27a0:	18 95       	reti

000027a2 <InitUsartF0>:
** 修订人:
** 修订日期:
**------------------------------------------------------------------------------------------------------------------------
*************************************************************************************************************************/
void InitUsartF0(uint32 Baudrate)
{
    27a2:	ef 92       	push	r14
    27a4:	ff 92       	push	r15
    27a6:	0f 93       	push	r16
    27a8:	1f 93       	push	r17
    27aa:	7b 01       	movw	r14, r22
    27ac:	8c 01       	movw	r16, r24
	/* This PORT setting is only valid to USARTF0 if other USARTs is used a
	 * different PORT and/or pins are used. */
	/* PF3 (TXD0) as output. */
	PORTF.DIRSET   = PIN3_bm;
    27ae:	e0 ea       	ldi	r30, 0xA0	; 160
    27b0:	f6 e0       	ldi	r31, 0x06	; 6
    27b2:	88 e0       	ldi	r24, 0x08	; 8
    27b4:	81 83       	std	Z+1, r24	; 0x01
	/* PF2 (RXD0) as input. */
	PORTF.DIRCLR   = PIN2_bm;
    27b6:	84 e0       	ldi	r24, 0x04	; 4
    27b8:	82 83       	std	Z+2, r24	; 0x02

	/* Use USARTF0 and initialize buffers. */
	USART_InterruptDriver_Initialize(&USART_data_F0, &USARTF0, USART_DREINTLVL_MED_gc);
    27ba:	8a e3       	ldi	r24, 0x3A	; 58
    27bc:	92 e2       	ldi	r25, 0x22	; 34
    27be:	60 ea       	ldi	r22, 0xA0	; 160
    27c0:	7b e0       	ldi	r23, 0x0B	; 11
    27c2:	42 e0       	ldi	r20, 0x02	; 2
    27c4:	0e 94 06 0d 	call	0x1a0c	; 0x1a0c <USART_InterruptDriver_Initialize>

	/* USARTF0, 8 Data bits, No Parity, 1 Stop bit. */
	USART_Format_Set(USART_data_F0.usart, USART_CHSIZE_8BIT_gc,
    27c8:	e0 91 3a 22 	lds	r30, 0x223A
    27cc:	f0 91 3b 22 	lds	r31, 0x223B
    27d0:	83 e0       	ldi	r24, 0x03	; 3
    27d2:	85 83       	std	Z+5, r24	; 0x05
					 USART_PMODE_DISABLED_gc, false);

	/* Enable RXC interrupt. */
	USART_RxdInterruptLevel_Set(USART_data_F0.usart, USART_RXCINTLVL_MED_gc);
    27d4:	83 81       	ldd	r24, Z+3	; 0x03
    27d6:	8f 7c       	andi	r24, 0xCF	; 207
    27d8:	80 62       	ori	r24, 0x20	; 32
    27da:	83 83       	std	Z+3, r24	; 0x03
	 * Do not use the baudrate scale factor
	 *
	 * Baudrate select = (I/O clock frequency)/(16 * Baudrate)-1
	 *                 = 0
	 */
	SetBaudRate(Baudrate);
    27dc:	c8 01       	movw	r24, r16
    27de:	b7 01       	movw	r22, r14
    27e0:	0e 94 0e 11 	call	0x221c	; 0x221c <SetBaudRate>
	USART_Baudrate_Set(&USARTF0, BaudRate_A , BaudRate_B);
    27e4:	20 91 d3 20 	lds	r18, 0x20D3
    27e8:	30 91 d4 20 	lds	r19, 0x20D4
    27ec:	e0 ea       	ldi	r30, 0xA0	; 160
    27ee:	fb e0       	ldi	r31, 0x0B	; 11
    27f0:	26 83       	std	Z+6, r18	; 0x06
    27f2:	23 2f       	mov	r18, r19
    27f4:	33 0f       	add	r19, r19
    27f6:	33 0b       	sbc	r19, r19
    27f8:	80 91 d5 20 	lds	r24, 0x20D5
    27fc:	90 91 d6 20 	lds	r25, 0x20D6
    2800:	34 e0       	ldi	r19, 0x04	; 4
    2802:	88 0f       	add	r24, r24
    2804:	99 1f       	adc	r25, r25
    2806:	3a 95       	dec	r19
    2808:	e1 f7       	brne	.-8      	; 0x2802 <InitUsartF0+0x60>
    280a:	28 2b       	or	r18, r24
    280c:	27 83       	std	Z+7, r18	; 0x07

	/* Enable both RX and TX. */
	USART_Rx_Enable(USART_data_F0.usart);
    280e:	e0 91 3a 22 	lds	r30, 0x223A
    2812:	f0 91 3b 22 	lds	r31, 0x223B
    2816:	84 81       	ldd	r24, Z+4	; 0x04
    2818:	80 61       	ori	r24, 0x10	; 16
    281a:	84 83       	std	Z+4, r24	; 0x04
	USART_Tx_Enable(USART_data_F0.usart);
    281c:	84 81       	ldd	r24, Z+4	; 0x04
    281e:	88 60       	ori	r24, 0x08	; 8
    2820:	84 83       	std	Z+4, r24	; 0x04
}
    2822:	1f 91       	pop	r17
    2824:	0f 91       	pop	r16
    2826:	ff 90       	pop	r15
    2828:	ef 90       	pop	r14
    282a:	08 95       	ret

0000282c <InitUsartE1>:
** 修订人:
** 修订日期:
**------------------------------------------------------------------------------------------------------------------------
*************************************************************************************************************************/
void InitUsartE1(uint32 Baudrate)
{
    282c:	ef 92       	push	r14
    282e:	ff 92       	push	r15
    2830:	0f 93       	push	r16
    2832:	1f 93       	push	r17
    2834:	7b 01       	movw	r14, r22
    2836:	8c 01       	movw	r16, r24
	/* PE1 (TXEN) as output */
	PORTE.DIRSET   = PIN1_bm;
    2838:	e0 e8       	ldi	r30, 0x80	; 128
    283a:	f6 e0       	ldi	r31, 0x06	; 6
    283c:	82 e0       	ldi	r24, 0x02	; 2
    283e:	81 83       	std	Z+1, r24	; 0x01

	/* TXEN set */
	PORTE.OUTSET   = PIN1_bm;
    2840:	85 83       	std	Z+5, r24	; 0x05

	/* This PORT setting is only valid to USARTE1 if other USARTs is used a
	 * different PORT and/or pins are used. */
	/* PE7 (TXD1) as output. */
	PORTE.DIRSET   = PIN7_bm;
    2842:	80 e8       	ldi	r24, 0x80	; 128
    2844:	81 83       	std	Z+1, r24	; 0x01
	/* PE6 (RXD1) as input. */
	PORTE.DIRCLR   = PIN6_bm;
    2846:	80 e4       	ldi	r24, 0x40	; 64
    2848:	82 83       	std	Z+2, r24	; 0x02

	/* Use USARTE1 and initialize buffers. */
	USART_InterruptDriver_Initialize(&USART_data_E1, &USARTE1, USART_DREINTLVL_MED_gc);
    284a:	83 ef       	ldi	r24, 0xF3	; 243
    284c:	91 e2       	ldi	r25, 0x21	; 33
    284e:	60 eb       	ldi	r22, 0xB0	; 176
    2850:	7a e0       	ldi	r23, 0x0A	; 10
    2852:	42 e0       	ldi	r20, 0x02	; 2
    2854:	0e 94 06 0d 	call	0x1a0c	; 0x1a0c <USART_InterruptDriver_Initialize>

	/* USARTE1, 8 Data bits, No Parity, 1 Stop bit. */
	USART_Format_Set(USART_data_E1.usart, USART_CHSIZE_8BIT_gc,
    2858:	e0 91 f3 21 	lds	r30, 0x21F3
    285c:	f0 91 f4 21 	lds	r31, 0x21F4
    2860:	83 e0       	ldi	r24, 0x03	; 3
    2862:	85 83       	std	Z+5, r24	; 0x05
					 USART_PMODE_DISABLED_gc, false);

	/* Enable RXC interrupt. */
	USART_RxdInterruptLevel_Set(USART_data_E1.usart, USART_RXCINTLVL_MED_gc);
    2864:	83 81       	ldd	r24, Z+3	; 0x03
    2866:	8f 7c       	andi	r24, 0xCF	; 207
    2868:	80 62       	ori	r24, 0x20	; 32
    286a:	83 83       	std	Z+3, r24	; 0x03
	 * Do not use the baudrate scale factor
	 *
	 * Baudrate select = (I/O clock frequency)/(16 * Baudrate)-1
	 *                 = 0
	 */
	SetBaudRate(Baudrate);
    286c:	c8 01       	movw	r24, r16
    286e:	b7 01       	movw	r22, r14
    2870:	0e 94 0e 11 	call	0x221c	; 0x221c <SetBaudRate>
	USART_Baudrate_Set(&USARTE1, BaudRate_A , BaudRate_B);
    2874:	20 91 d3 20 	lds	r18, 0x20D3
    2878:	30 91 d4 20 	lds	r19, 0x20D4
    287c:	e0 eb       	ldi	r30, 0xB0	; 176
    287e:	fa e0       	ldi	r31, 0x0A	; 10
    2880:	26 83       	std	Z+6, r18	; 0x06
    2882:	23 2f       	mov	r18, r19
    2884:	33 0f       	add	r19, r19
    2886:	33 0b       	sbc	r19, r19
    2888:	80 91 d5 20 	lds	r24, 0x20D5
    288c:	90 91 d6 20 	lds	r25, 0x20D6
    2890:	54 e0       	ldi	r21, 0x04	; 4
    2892:	88 0f       	add	r24, r24
    2894:	99 1f       	adc	r25, r25
    2896:	5a 95       	dec	r21
    2898:	e1 f7       	brne	.-8      	; 0x2892 <InitUsartE1+0x66>
    289a:	28 2b       	or	r18, r24
    289c:	27 83       	std	Z+7, r18	; 0x07

	/* Enable both RX and TX. */
	USART_Rx_Enable(USART_data_E1.usart);
    289e:	e0 91 f3 21 	lds	r30, 0x21F3
    28a2:	f0 91 f4 21 	lds	r31, 0x21F4
    28a6:	84 81       	ldd	r24, Z+4	; 0x04
    28a8:	80 61       	ori	r24, 0x10	; 16
    28aa:	84 83       	std	Z+4, r24	; 0x04
	USART_Tx_Enable(USART_data_E1.usart);
    28ac:	84 81       	ldd	r24, Z+4	; 0x04
    28ae:	88 60       	ori	r24, 0x08	; 8
    28b0:	84 83       	std	Z+4, r24	; 0x04
}
    28b2:	1f 91       	pop	r17
    28b4:	0f 91       	pop	r16
    28b6:	ff 90       	pop	r15
    28b8:	ef 90       	pop	r14
    28ba:	08 95       	ret

000028bc <InitUsartE0>:
** 修订人:
** 修订日期:
**------------------------------------------------------------------------------------------------------------------------
*************************************************************************************************************************/
void InitUsartE0(uint32 Baudrate)
{
    28bc:	ef 92       	push	r14
    28be:	ff 92       	push	r15
    28c0:	0f 93       	push	r16
    28c2:	1f 93       	push	r17
    28c4:	7b 01       	movw	r14, r22
    28c6:	8c 01       	movw	r16, r24
	/* This PORT setting is only valid to USARTE0 if other USARTs is used a
	 * different PORT and/or pins are used. */
	/* PD3 (TXD0) as output. */
	PORTE.DIRSET   = PIN3_bm;
    28c8:	e0 e8       	ldi	r30, 0x80	; 128
    28ca:	f6 e0       	ldi	r31, 0x06	; 6
    28cc:	88 e0       	ldi	r24, 0x08	; 8
    28ce:	81 83       	std	Z+1, r24	; 0x01
	/* PD2 (RXD0) as input. */
	PORTE.DIRCLR   = PIN2_bm;
    28d0:	84 e0       	ldi	r24, 0x04	; 4
    28d2:	82 83       	std	Z+2, r24	; 0x02

	/* Use USARTE0 and initialize buffers. */
	USART_InterruptDriver_Initialize(&USART_data_E0, &USARTE0, USART_DREINTLVL_MED_gc);
    28d4:	87 ed       	ldi	r24, 0xD7	; 215
    28d6:	90 e2       	ldi	r25, 0x20	; 32
    28d8:	60 ea       	ldi	r22, 0xA0	; 160
    28da:	7a e0       	ldi	r23, 0x0A	; 10
    28dc:	42 e0       	ldi	r20, 0x02	; 2
    28de:	0e 94 06 0d 	call	0x1a0c	; 0x1a0c <USART_InterruptDriver_Initialize>

	/* USARTE0, 8 Data bits, No Parity, 1 Stop bit. */
	USART_Format_Set(USART_data_E0.usart, USART_CHSIZE_8BIT_gc,
    28e2:	e0 91 d7 20 	lds	r30, 0x20D7
    28e6:	f0 91 d8 20 	lds	r31, 0x20D8
    28ea:	83 e0       	ldi	r24, 0x03	; 3
    28ec:	85 83       	std	Z+5, r24	; 0x05
					 USART_PMODE_DISABLED_gc, false);

	/* Enable RXC interrupt. */
	USART_RxdInterruptLevel_Set(USART_data_E0.usart, USART_RXCINTLVL_MED_gc);
    28ee:	83 81       	ldd	r24, Z+3	; 0x03
    28f0:	8f 7c       	andi	r24, 0xCF	; 207
    28f2:	80 62       	ori	r24, 0x20	; 32
    28f4:	83 83       	std	Z+3, r24	; 0x03
	 * Do not use the baudrate scale factor
	 *
	 * Baudrate select = (I/O clock frequency)/(16 * Baudrate)-1
	 *                 = 0
	 */
	SetBaudRate(Baudrate);
    28f6:	c8 01       	movw	r24, r16
    28f8:	b7 01       	movw	r22, r14
    28fa:	0e 94 0e 11 	call	0x221c	; 0x221c <SetBaudRate>
	USART_Baudrate_Set(&USARTE0, BaudRate_A , BaudRate_B);
    28fe:	20 91 d3 20 	lds	r18, 0x20D3
    2902:	30 91 d4 20 	lds	r19, 0x20D4
    2906:	e0 ea       	ldi	r30, 0xA0	; 160
    2908:	fa e0       	ldi	r31, 0x0A	; 10
    290a:	26 83       	std	Z+6, r18	; 0x06
    290c:	23 2f       	mov	r18, r19
    290e:	33 0f       	add	r19, r19
    2910:	33 0b       	sbc	r19, r19
    2912:	80 91 d5 20 	lds	r24, 0x20D5
    2916:	90 91 d6 20 	lds	r25, 0x20D6
    291a:	74 e0       	ldi	r23, 0x04	; 4
    291c:	88 0f       	add	r24, r24
    291e:	99 1f       	adc	r25, r25
    2920:	7a 95       	dec	r23
    2922:	e1 f7       	brne	.-8      	; 0x291c <InitUsartE0+0x60>
    2924:	28 2b       	or	r18, r24
    2926:	27 83       	std	Z+7, r18	; 0x07

	/* Enable both RX and TX. */
	USART_Rx_Enable(USART_data_E0.usart);
    2928:	e0 91 d7 20 	lds	r30, 0x20D7
    292c:	f0 91 d8 20 	lds	r31, 0x20D8
    2930:	84 81       	ldd	r24, Z+4	; 0x04
    2932:	80 61       	ori	r24, 0x10	; 16
    2934:	84 83       	std	Z+4, r24	; 0x04
	USART_Tx_Enable(USART_data_E0.usart);
    2936:	84 81       	ldd	r24, Z+4	; 0x04
    2938:	88 60       	ori	r24, 0x08	; 8
    293a:	84 83       	std	Z+4, r24	; 0x04
}
    293c:	1f 91       	pop	r17
    293e:	0f 91       	pop	r16
    2940:	ff 90       	pop	r15
    2942:	ef 90       	pop	r14
    2944:	08 95       	ret

00002946 <InitUsartD1>:
** 修订人:
** 修订日期:
**------------------------------------------------------------------------------------------------------------------------
*************************************************************************************************************************/
void InitUsartD1(uint32 Baudrate)
{
    2946:	ef 92       	push	r14
    2948:	ff 92       	push	r15
    294a:	0f 93       	push	r16
    294c:	1f 93       	push	r17
    294e:	7b 01       	movw	r14, r22
    2950:	8c 01       	movw	r16, r24
	/* This PORT setting is only valid to USARTD1 if other USARTs is used a
	 * different PORT and/or pins are used. */
	/* PD7 (TXD1) as output. */
	PORTD.DIRSET   = PIN7_bm;
    2952:	e0 e6       	ldi	r30, 0x60	; 96
    2954:	f6 e0       	ldi	r31, 0x06	; 6
    2956:	80 e8       	ldi	r24, 0x80	; 128
    2958:	81 83       	std	Z+1, r24	; 0x01
	/* PD6 (RXD1) as input. */
	PORTD.DIRCLR   = PIN6_bm;
    295a:	80 e4       	ldi	r24, 0x40	; 64
    295c:	82 83       	std	Z+2, r24	; 0x02

	/* Use USARTD1 and initialize buffers. */
	USART_InterruptDriver_Initialize(&USART_data_D1, &USARTD1, USART_DREINTLVL_MED_gc);
    295e:	85 e6       	ldi	r24, 0x65	; 101
    2960:	91 e2       	ldi	r25, 0x21	; 33
    2962:	60 eb       	ldi	r22, 0xB0	; 176
    2964:	79 e0       	ldi	r23, 0x09	; 9
    2966:	42 e0       	ldi	r20, 0x02	; 2
    2968:	0e 94 06 0d 	call	0x1a0c	; 0x1a0c <USART_InterruptDriver_Initialize>

	/* USARTD1, 8 Data bits, No Parity, 1 Stop bit. */
	USART_Format_Set(USART_data_D1.usart, USART_CHSIZE_8BIT_gc,
    296c:	e0 91 65 21 	lds	r30, 0x2165
    2970:	f0 91 66 21 	lds	r31, 0x2166
    2974:	83 e0       	ldi	r24, 0x03	; 3
    2976:	85 83       	std	Z+5, r24	; 0x05
					 USART_PMODE_DISABLED_gc, false);

	/* Enable RXC interrupt. */
	USART_RxdInterruptLevel_Set(USART_data_D1.usart, USART_RXCINTLVL_MED_gc);
    2978:	83 81       	ldd	r24, Z+3	; 0x03
    297a:	8f 7c       	andi	r24, 0xCF	; 207
    297c:	80 62       	ori	r24, 0x20	; 32
    297e:	83 83       	std	Z+3, r24	; 0x03
	 * Do not use the baudrate scale factor
	 *
	 * Baudrate select = (I/O clock frequency)/(16 * Baudrate)-1
	 *                 = 0
	 */
	SetBaudRate(Baudrate);
    2980:	c8 01       	movw	r24, r16
    2982:	b7 01       	movw	r22, r14
    2984:	0e 94 0e 11 	call	0x221c	; 0x221c <SetBaudRate>
	USART_Baudrate_Set(&USARTD1, BaudRate_A , BaudRate_B);
    2988:	20 91 d3 20 	lds	r18, 0x20D3
    298c:	30 91 d4 20 	lds	r19, 0x20D4
    2990:	e0 eb       	ldi	r30, 0xB0	; 176
    2992:	f9 e0       	ldi	r31, 0x09	; 9
    2994:	26 83       	std	Z+6, r18	; 0x06
    2996:	23 2f       	mov	r18, r19
    2998:	33 0f       	add	r19, r19
    299a:	33 0b       	sbc	r19, r19
    299c:	80 91 d5 20 	lds	r24, 0x20D5
    29a0:	90 91 d6 20 	lds	r25, 0x20D6
    29a4:	b4 e0       	ldi	r27, 0x04	; 4
    29a6:	88 0f       	add	r24, r24
    29a8:	99 1f       	adc	r25, r25
    29aa:	ba 95       	dec	r27
    29ac:	e1 f7       	brne	.-8      	; 0x29a6 <InitUsartD1+0x60>
    29ae:	28 2b       	or	r18, r24
    29b0:	27 83       	std	Z+7, r18	; 0x07

	/* Enable both RX and TX. */
	USART_Rx_Enable(USART_data_D1.usart);
    29b2:	e0 91 65 21 	lds	r30, 0x2165
    29b6:	f0 91 66 21 	lds	r31, 0x2166
    29ba:	84 81       	ldd	r24, Z+4	; 0x04
    29bc:	80 61       	ori	r24, 0x10	; 16
    29be:	84 83       	std	Z+4, r24	; 0x04
	USART_Tx_Enable(USART_data_D1.usart);
    29c0:	84 81       	ldd	r24, Z+4	; 0x04
    29c2:	88 60       	ori	r24, 0x08	; 8
    29c4:	84 83       	std	Z+4, r24	; 0x04
}
    29c6:	1f 91       	pop	r17
    29c8:	0f 91       	pop	r16
    29ca:	ff 90       	pop	r15
    29cc:	ef 90       	pop	r14
    29ce:	08 95       	ret

000029d0 <InitUsartD0>:
** 修订人:
** 修订日期:
**------------------------------------------------------------------------------------------------------------------------
*************************************************************************************************************************/
void InitUsartD0(uint32 Baudrate)
{
    29d0:	ef 92       	push	r14
    29d2:	ff 92       	push	r15
    29d4:	0f 93       	push	r16
    29d6:	1f 93       	push	r17
    29d8:	7b 01       	movw	r14, r22
    29da:	8c 01       	movw	r16, r24
	/* This PORT setting is only valid to USARTD0 if other USARTs is used a
	 * different PORT and/or pins are used. */
	/* PD3 (TXD0) as output. */
	PORTD.DIRSET   = PIN3_bm;
    29dc:	e0 e6       	ldi	r30, 0x60	; 96
    29de:	f6 e0       	ldi	r31, 0x06	; 6
    29e0:	88 e0       	ldi	r24, 0x08	; 8
    29e2:	81 83       	std	Z+1, r24	; 0x01
	/* PD2 (RXD0) as input. */
	PORTD.DIRCLR   = PIN2_bm;
    29e4:	84 e0       	ldi	r24, 0x04	; 4
    29e6:	82 83       	std	Z+2, r24	; 0x02

	/* Use USARTD0 and initialize buffers. */
	USART_InterruptDriver_Initialize(&USART_data_D0, &USARTD0, USART_DREINTLVL_MED_gc);
    29e8:	81 e8       	ldi	r24, 0x81	; 129
    29ea:	92 e2       	ldi	r25, 0x22	; 34
    29ec:	60 ea       	ldi	r22, 0xA0	; 160
    29ee:	79 e0       	ldi	r23, 0x09	; 9
    29f0:	42 e0       	ldi	r20, 0x02	; 2
    29f2:	0e 94 06 0d 	call	0x1a0c	; 0x1a0c <USART_InterruptDriver_Initialize>

	/* USARTD0, 8 Data bits, No Parity, 1 Stop bit. */
	USART_Format_Set(USART_data_D0.usart, USART_CHSIZE_8BIT_gc,
    29f6:	e0 91 81 22 	lds	r30, 0x2281
    29fa:	f0 91 82 22 	lds	r31, 0x2282
    29fe:	83 e0       	ldi	r24, 0x03	; 3
    2a00:	85 83       	std	Z+5, r24	; 0x05
					 USART_PMODE_DISABLED_gc, false);

	/* Enable RXC interrupt. */
	USART_RxdInterruptLevel_Set(USART_data_D0.usart, USART_RXCINTLVL_MED_gc);
    2a02:	83 81       	ldd	r24, Z+3	; 0x03
    2a04:	8f 7c       	andi	r24, 0xCF	; 207
    2a06:	80 62       	ori	r24, 0x20	; 32
    2a08:	83 83       	std	Z+3, r24	; 0x03

	/* Enable TX Complete interrupt. */
	USART_TxdInterruptLevel_Set(USART_data_D0.usart, USART_TXCINTLVL_HI_gc);
    2a0a:	83 81       	ldd	r24, Z+3	; 0x03
    2a0c:	8c 60       	ori	r24, 0x0C	; 12
    2a0e:	83 83       	std	Z+3, r24	; 0x03
	 * Do not use the baudrate scale factor
	 *
	 * Baudrate select = (I/O clock frequency)/(16 * Baudrate)-1
	 *                 = 0
	 */
	SetBaudRate(Baudrate);
    2a10:	c8 01       	movw	r24, r16
    2a12:	b7 01       	movw	r22, r14
    2a14:	0e 94 0e 11 	call	0x221c	; 0x221c <SetBaudRate>
	USART_Baudrate_Set(&USARTD0, BaudRate_A , BaudRate_B);
    2a18:	20 91 d3 20 	lds	r18, 0x20D3
    2a1c:	30 91 d4 20 	lds	r19, 0x20D4
    2a20:	e0 ea       	ldi	r30, 0xA0	; 160
    2a22:	f9 e0       	ldi	r31, 0x09	; 9
    2a24:	26 83       	std	Z+6, r18	; 0x06
    2a26:	23 2f       	mov	r18, r19
    2a28:	33 0f       	add	r19, r19
    2a2a:	33 0b       	sbc	r19, r19
    2a2c:	80 91 d5 20 	lds	r24, 0x20D5
    2a30:	90 91 d6 20 	lds	r25, 0x20D6
    2a34:	04 e0       	ldi	r16, 0x04	; 4
    2a36:	88 0f       	add	r24, r24
    2a38:	99 1f       	adc	r25, r25
    2a3a:	0a 95       	dec	r16
    2a3c:	e1 f7       	brne	.-8      	; 0x2a36 <InitUsartD0+0x66>
    2a3e:	28 2b       	or	r18, r24
    2a40:	27 83       	std	Z+7, r18	; 0x07

	/* Enable both RX and TX. */
	USART_Rx_Enable(USART_data_D0.usart);
    2a42:	e0 91 81 22 	lds	r30, 0x2281
    2a46:	f0 91 82 22 	lds	r31, 0x2282
    2a4a:	84 81       	ldd	r24, Z+4	; 0x04
    2a4c:	80 61       	ori	r24, 0x10	; 16
    2a4e:	84 83       	std	Z+4, r24	; 0x04
	USART_Tx_Enable(USART_data_D0.usart);
    2a50:	84 81       	ldd	r24, Z+4	; 0x04
    2a52:	88 60       	ori	r24, 0x08	; 8
    2a54:	84 83       	std	Z+4, r24	; 0x04
}
    2a56:	1f 91       	pop	r17
    2a58:	0f 91       	pop	r16
    2a5a:	ff 90       	pop	r15
    2a5c:	ef 90       	pop	r14
    2a5e:	08 95       	ret

00002a60 <InitUsartC1>:
** 修订人:
** 修订日期:
**------------------------------------------------------------------------------------------------------------------------
*************************************************************************************************************************/
void InitUsartC1(uint32 Baudrate)
{
    2a60:	ef 92       	push	r14
    2a62:	ff 92       	push	r15
    2a64:	0f 93       	push	r16
    2a66:	1f 93       	push	r17
    2a68:	7b 01       	movw	r14, r22
    2a6a:	8c 01       	movw	r16, r24
	/* This PORT setting is only valid to USARTC1 if other USARTs is used a
	 * different PORT and/or pins are used. */
	/* PC7 (TXD1) as output. */
	PORTC.DIRSET   = PIN7_bm;
    2a6c:	e0 e4       	ldi	r30, 0x40	; 64
    2a6e:	f6 e0       	ldi	r31, 0x06	; 6
    2a70:	80 e8       	ldi	r24, 0x80	; 128
    2a72:	81 83       	std	Z+1, r24	; 0x01
	/* PC6 (RXD1) as input. */
	PORTC.DIRCLR   = PIN6_bm;
    2a74:	80 e4       	ldi	r24, 0x40	; 64
    2a76:	82 83       	std	Z+2, r24	; 0x02

	/* Use USARTC1 and initialize buffers. */
	USART_InterruptDriver_Initialize(&USART_data_C1, &USARTC1, USART_DREINTLVL_MED_gc);
    2a78:	8e e1       	ldi	r24, 0x1E	; 30
    2a7a:	91 e2       	ldi	r25, 0x21	; 33
    2a7c:	60 eb       	ldi	r22, 0xB0	; 176
    2a7e:	78 e0       	ldi	r23, 0x08	; 8
    2a80:	42 e0       	ldi	r20, 0x02	; 2
    2a82:	0e 94 06 0d 	call	0x1a0c	; 0x1a0c <USART_InterruptDriver_Initialize>

	/* USARTC1, 8 Data bits, No Parity, 1 Stop bit. */
	USART_Format_Set(USART_data_C1.usart, USART_CHSIZE_8BIT_gc,
    2a86:	e0 91 1e 21 	lds	r30, 0x211E
    2a8a:	f0 91 1f 21 	lds	r31, 0x211F
    2a8e:	83 e0       	ldi	r24, 0x03	; 3
    2a90:	85 83       	std	Z+5, r24	; 0x05
					 USART_PMODE_DISABLED_gc, false);

	/* Enable RXC interrupt. */
	USART_RxdInterruptLevel_Set(USART_data_C1.usart, USART_RXCINTLVL_MED_gc);
    2a92:	83 81       	ldd	r24, Z+3	; 0x03
    2a94:	8f 7c       	andi	r24, 0xCF	; 207
    2a96:	80 62       	ori	r24, 0x20	; 32
    2a98:	83 83       	std	Z+3, r24	; 0x03
	 * Do not use the baudrate scale factor
	 *
	 * Baudrate select = (I/O clock frequency)/(16 * Baudrate)-1
	 *                 = 0
	 */
	SetBaudRate(Baudrate);
    2a9a:	c8 01       	movw	r24, r16
    2a9c:	b7 01       	movw	r22, r14
    2a9e:	0e 94 0e 11 	call	0x221c	; 0x221c <SetBaudRate>
	USART_Baudrate_Set(&USARTC1, BaudRate_A , BaudRate_B);
    2aa2:	20 91 d3 20 	lds	r18, 0x20D3
    2aa6:	30 91 d4 20 	lds	r19, 0x20D4
    2aaa:	e0 eb       	ldi	r30, 0xB0	; 176
    2aac:	f8 e0       	ldi	r31, 0x08	; 8
    2aae:	26 83       	std	Z+6, r18	; 0x06
    2ab0:	23 2f       	mov	r18, r19
    2ab2:	33 0f       	add	r19, r19
    2ab4:	33 0b       	sbc	r19, r19
    2ab6:	80 91 d5 20 	lds	r24, 0x20D5
    2aba:	90 91 d6 20 	lds	r25, 0x20D6
    2abe:	34 e0       	ldi	r19, 0x04	; 4
    2ac0:	88 0f       	add	r24, r24
    2ac2:	99 1f       	adc	r25, r25
    2ac4:	3a 95       	dec	r19
    2ac6:	e1 f7       	brne	.-8      	; 0x2ac0 <InitUsartC1+0x60>
    2ac8:	28 2b       	or	r18, r24
    2aca:	27 83       	std	Z+7, r18	; 0x07

	/* Enable both RX and TX. */
	USART_Rx_Enable(USART_data_C1.usart);
    2acc:	e0 91 1e 21 	lds	r30, 0x211E
    2ad0:	f0 91 1f 21 	lds	r31, 0x211F
    2ad4:	84 81       	ldd	r24, Z+4	; 0x04
    2ad6:	80 61       	ori	r24, 0x10	; 16
    2ad8:	84 83       	std	Z+4, r24	; 0x04
	USART_Tx_Enable(USART_data_C1.usart);
    2ada:	84 81       	ldd	r24, Z+4	; 0x04
    2adc:	88 60       	ori	r24, 0x08	; 8
    2ade:	84 83       	std	Z+4, r24	; 0x04
}
    2ae0:	1f 91       	pop	r17
    2ae2:	0f 91       	pop	r16
    2ae4:	ff 90       	pop	r15
    2ae6:	ef 90       	pop	r14
    2ae8:	08 95       	ret

00002aea <InitUsartC0>:
** 修订人:
** 修订日期:
**------------------------------------------------------------------------------------------------------------------------
*************************************************************************************************************************/
void InitUsartC0(uint32 Baudrate)
{
    2aea:	ef 92       	push	r14
    2aec:	ff 92       	push	r15
    2aee:	0f 93       	push	r16
    2af0:	1f 93       	push	r17
    2af2:	7b 01       	movw	r14, r22
    2af4:	8c 01       	movw	r16, r24
	/* This PORT setting is only valid to USARTC0 if other USARTs is used a
	 * different PORT and/or pins are used. */
	/* PC3 (TXD0) as output. */
	PORTC.DIRSET   = PIN3_bm;
    2af6:	e0 e4       	ldi	r30, 0x40	; 64
    2af8:	f6 e0       	ldi	r31, 0x06	; 6
    2afa:	88 e0       	ldi	r24, 0x08	; 8
    2afc:	81 83       	std	Z+1, r24	; 0x01
	/* PC2 (RXD0) as input. */
	PORTC.DIRCLR   = PIN2_bm;
    2afe:	84 e0       	ldi	r24, 0x04	; 4
    2b00:	82 83       	std	Z+2, r24	; 0x02

	/* Use USARTC0 and initialize buffers. */
	USART_InterruptDriver_Initialize(&USART_data_C0, &USARTC0, USART_DREINTLVL_MED_gc);
    2b02:	8c ea       	ldi	r24, 0xAC	; 172
    2b04:	91 e2       	ldi	r25, 0x21	; 33
    2b06:	60 ea       	ldi	r22, 0xA0	; 160
    2b08:	78 e0       	ldi	r23, 0x08	; 8
    2b0a:	42 e0       	ldi	r20, 0x02	; 2
    2b0c:	0e 94 06 0d 	call	0x1a0c	; 0x1a0c <USART_InterruptDriver_Initialize>

	/* USARTC0, 8 Data bits, No Parity, 1 Stop bit. */
	USART_Format_Set(USART_data_C0.usart, USART_CHSIZE_8BIT_gc,
    2b10:	e0 91 ac 21 	lds	r30, 0x21AC
    2b14:	f0 91 ad 21 	lds	r31, 0x21AD
    2b18:	83 e0       	ldi	r24, 0x03	; 3
    2b1a:	85 83       	std	Z+5, r24	; 0x05
					 USART_PMODE_DISABLED_gc, false);

	/* Enable RXC interrupt. */
	USART_RxdInterruptLevel_Set(USART_data_C0.usart, USART_RXCINTLVL_MED_gc);
    2b1c:	83 81       	ldd	r24, Z+3	; 0x03
    2b1e:	8f 7c       	andi	r24, 0xCF	; 207
    2b20:	80 62       	ori	r24, 0x20	; 32
    2b22:	83 83       	std	Z+3, r24	; 0x03
	 * Do not use the baudrate scale factor
	 *
	 * Baudrate select = (I/O clock frequency)/(16 * Baudrate)-1
	 *                 = 0
	 */
	SetBaudRate(Baudrate);
    2b24:	c8 01       	movw	r24, r16
    2b26:	b7 01       	movw	r22, r14
    2b28:	0e 94 0e 11 	call	0x221c	; 0x221c <SetBaudRate>
	USART_Baudrate_Set(&USARTC0, BaudRate_A , BaudRate_B);
    2b2c:	20 91 d3 20 	lds	r18, 0x20D3
    2b30:	30 91 d4 20 	lds	r19, 0x20D4
    2b34:	e0 ea       	ldi	r30, 0xA0	; 160
    2b36:	f8 e0       	ldi	r31, 0x08	; 8
    2b38:	26 83       	std	Z+6, r18	; 0x06
    2b3a:	23 2f       	mov	r18, r19
    2b3c:	33 0f       	add	r19, r19
    2b3e:	33 0b       	sbc	r19, r19
    2b40:	80 91 d5 20 	lds	r24, 0x20D5
    2b44:	90 91 d6 20 	lds	r25, 0x20D6
    2b48:	54 e0       	ldi	r21, 0x04	; 4
    2b4a:	88 0f       	add	r24, r24
    2b4c:	99 1f       	adc	r25, r25
    2b4e:	5a 95       	dec	r21
    2b50:	e1 f7       	brne	.-8      	; 0x2b4a <InitUsartC0+0x60>
    2b52:	28 2b       	or	r18, r24
    2b54:	27 83       	std	Z+7, r18	; 0x07


	/* Enable both RX and TX. */
	USART_Rx_Enable(USART_data_C0.usart);
    2b56:	e0 91 ac 21 	lds	r30, 0x21AC
    2b5a:	f0 91 ad 21 	lds	r31, 0x21AD
    2b5e:	84 81       	ldd	r24, Z+4	; 0x04
    2b60:	80 61       	ori	r24, 0x10	; 16
    2b62:	84 83       	std	Z+4, r24	; 0x04
	USART_Tx_Enable(USART_data_C0.usart);
    2b64:	84 81       	ldd	r24, Z+4	; 0x04
    2b66:	88 60       	ori	r24, 0x08	; 8
    2b68:	84 83       	std	Z+4, r24	; 0x04
}
    2b6a:	1f 91       	pop	r17
    2b6c:	0f 91       	pop	r16
    2b6e:	ff 90       	pop	r15
    2b70:	ef 90       	pop	r14
    2b72:	08 95       	ret

00002b74 <__mulsi3>:
    2b74:	62 9f       	mul	r22, r18
    2b76:	d0 01       	movw	r26, r0
    2b78:	73 9f       	mul	r23, r19
    2b7a:	f0 01       	movw	r30, r0
    2b7c:	82 9f       	mul	r24, r18
    2b7e:	e0 0d       	add	r30, r0
    2b80:	f1 1d       	adc	r31, r1
    2b82:	64 9f       	mul	r22, r20
    2b84:	e0 0d       	add	r30, r0
    2b86:	f1 1d       	adc	r31, r1
    2b88:	92 9f       	mul	r25, r18
    2b8a:	f0 0d       	add	r31, r0
    2b8c:	83 9f       	mul	r24, r19
    2b8e:	f0 0d       	add	r31, r0
    2b90:	74 9f       	mul	r23, r20
    2b92:	f0 0d       	add	r31, r0
    2b94:	65 9f       	mul	r22, r21
    2b96:	f0 0d       	add	r31, r0
    2b98:	99 27       	eor	r25, r25
    2b9a:	72 9f       	mul	r23, r18
    2b9c:	b0 0d       	add	r27, r0
    2b9e:	e1 1d       	adc	r30, r1
    2ba0:	f9 1f       	adc	r31, r25
    2ba2:	63 9f       	mul	r22, r19
    2ba4:	b0 0d       	add	r27, r0
    2ba6:	e1 1d       	adc	r30, r1
    2ba8:	f9 1f       	adc	r31, r25
    2baa:	bd 01       	movw	r22, r26
    2bac:	cf 01       	movw	r24, r30
    2bae:	11 24       	eor	r1, r1
    2bb0:	08 95       	ret

00002bb2 <__udivmodhi4>:
    2bb2:	aa 1b       	sub	r26, r26
    2bb4:	bb 1b       	sub	r27, r27
    2bb6:	51 e1       	ldi	r21, 0x11	; 17
    2bb8:	07 c0       	rjmp	.+14     	; 0x2bc8 <__udivmodhi4_ep>

00002bba <__udivmodhi4_loop>:
    2bba:	aa 1f       	adc	r26, r26
    2bbc:	bb 1f       	adc	r27, r27
    2bbe:	a6 17       	cp	r26, r22
    2bc0:	b7 07       	cpc	r27, r23
    2bc2:	10 f0       	brcs	.+4      	; 0x2bc8 <__udivmodhi4_ep>
    2bc4:	a6 1b       	sub	r26, r22
    2bc6:	b7 0b       	sbc	r27, r23

00002bc8 <__udivmodhi4_ep>:
    2bc8:	88 1f       	adc	r24, r24
    2bca:	99 1f       	adc	r25, r25
    2bcc:	5a 95       	dec	r21
    2bce:	a9 f7       	brne	.-22     	; 0x2bba <__udivmodhi4_loop>
    2bd0:	80 95       	com	r24
    2bd2:	90 95       	com	r25
    2bd4:	bc 01       	movw	r22, r24
    2bd6:	cd 01       	movw	r24, r26
    2bd8:	08 95       	ret

00002bda <__divmodhi4>:
    2bda:	97 fb       	bst	r25, 7
    2bdc:	09 2e       	mov	r0, r25
    2bde:	07 26       	eor	r0, r23
    2be0:	0a d0       	rcall	.+20     	; 0x2bf6 <__divmodhi4_neg1>
    2be2:	77 fd       	sbrc	r23, 7
    2be4:	04 d0       	rcall	.+8      	; 0x2bee <__divmodhi4_neg2>
    2be6:	e5 df       	rcall	.-54     	; 0x2bb2 <__udivmodhi4>
    2be8:	06 d0       	rcall	.+12     	; 0x2bf6 <__divmodhi4_neg1>
    2bea:	00 20       	and	r0, r0
    2bec:	1a f4       	brpl	.+6      	; 0x2bf4 <__divmodhi4_exit>

00002bee <__divmodhi4_neg2>:
    2bee:	70 95       	com	r23
    2bf0:	61 95       	neg	r22
    2bf2:	7f 4f       	sbci	r23, 0xFF	; 255

00002bf4 <__divmodhi4_exit>:
    2bf4:	08 95       	ret

00002bf6 <__divmodhi4_neg1>:
    2bf6:	f6 f7       	brtc	.-4      	; 0x2bf4 <__divmodhi4_exit>
    2bf8:	90 95       	com	r25
    2bfa:	81 95       	neg	r24
    2bfc:	9f 4f       	sbci	r25, 0xFF	; 255
    2bfe:	08 95       	ret

00002c00 <__udivmodsi4>:
    2c00:	a1 e2       	ldi	r26, 0x21	; 33
    2c02:	1a 2e       	mov	r1, r26
    2c04:	aa 1b       	sub	r26, r26
    2c06:	bb 1b       	sub	r27, r27
    2c08:	fd 01       	movw	r30, r26
    2c0a:	0d c0       	rjmp	.+26     	; 0x2c26 <__udivmodsi4_ep>

00002c0c <__udivmodsi4_loop>:
    2c0c:	aa 1f       	adc	r26, r26
    2c0e:	bb 1f       	adc	r27, r27
    2c10:	ee 1f       	adc	r30, r30
    2c12:	ff 1f       	adc	r31, r31
    2c14:	a2 17       	cp	r26, r18
    2c16:	b3 07       	cpc	r27, r19
    2c18:	e4 07       	cpc	r30, r20
    2c1a:	f5 07       	cpc	r31, r21
    2c1c:	20 f0       	brcs	.+8      	; 0x2c26 <__udivmodsi4_ep>
    2c1e:	a2 1b       	sub	r26, r18
    2c20:	b3 0b       	sbc	r27, r19
    2c22:	e4 0b       	sbc	r30, r20
    2c24:	f5 0b       	sbc	r31, r21

00002c26 <__udivmodsi4_ep>:
    2c26:	66 1f       	adc	r22, r22
    2c28:	77 1f       	adc	r23, r23
    2c2a:	88 1f       	adc	r24, r24
    2c2c:	99 1f       	adc	r25, r25
    2c2e:	1a 94       	dec	r1
    2c30:	69 f7       	brne	.-38     	; 0x2c0c <__udivmodsi4_loop>
    2c32:	60 95       	com	r22
    2c34:	70 95       	com	r23
    2c36:	80 95       	com	r24
    2c38:	90 95       	com	r25
    2c3a:	9b 01       	movw	r18, r22
    2c3c:	ac 01       	movw	r20, r24
    2c3e:	bd 01       	movw	r22, r26
    2c40:	cf 01       	movw	r24, r30
    2c42:	08 95       	ret

00002c44 <__divmodsi4>:
    2c44:	97 fb       	bst	r25, 7
    2c46:	09 2e       	mov	r0, r25
    2c48:	05 26       	eor	r0, r21
    2c4a:	0e d0       	rcall	.+28     	; 0x2c68 <__divmodsi4_neg1>
    2c4c:	57 fd       	sbrc	r21, 7
    2c4e:	04 d0       	rcall	.+8      	; 0x2c58 <__divmodsi4_neg2>
    2c50:	d7 df       	rcall	.-82     	; 0x2c00 <__udivmodsi4>
    2c52:	0a d0       	rcall	.+20     	; 0x2c68 <__divmodsi4_neg1>
    2c54:	00 1c       	adc	r0, r0
    2c56:	38 f4       	brcc	.+14     	; 0x2c66 <__divmodsi4_exit>

00002c58 <__divmodsi4_neg2>:
    2c58:	50 95       	com	r21
    2c5a:	40 95       	com	r20
    2c5c:	30 95       	com	r19
    2c5e:	21 95       	neg	r18
    2c60:	3f 4f       	sbci	r19, 0xFF	; 255
    2c62:	4f 4f       	sbci	r20, 0xFF	; 255
    2c64:	5f 4f       	sbci	r21, 0xFF	; 255

00002c66 <__divmodsi4_exit>:
    2c66:	08 95       	ret

00002c68 <__divmodsi4_neg1>:
    2c68:	f6 f7       	brtc	.-4      	; 0x2c66 <__divmodsi4_exit>
    2c6a:	90 95       	com	r25
    2c6c:	80 95       	com	r24
    2c6e:	70 95       	com	r23
    2c70:	61 95       	neg	r22
    2c72:	7f 4f       	sbci	r23, 0xFF	; 255
    2c74:	8f 4f       	sbci	r24, 0xFF	; 255
    2c76:	9f 4f       	sbci	r25, 0xFF	; 255
    2c78:	08 95       	ret

00002c7a <_exit>:
    2c7a:	f8 94       	cli

00002c7c <__stop_program>:
    2c7c:	ff cf       	rjmp	.-2      	; 0x2c7c <__stop_program>
